Disassembly of section .init:

0000000000000eb0 <_init>:
 eb0:	48 83 ec 08          	sub    $0x8,%rsp
 eb4:	48 8b 05 25 31 20 00 	mov    0x203125(%rip),%rax        # 203fe0 <__gmon_start__>
 ebb:	48 85 c0             	test   %rax,%rax
 ebe:	74 02                	je     ec2 <_init+0x12>
 ec0:	ff d0                	callq  *%rax
 ec2:	48 83 c4 08          	add    $0x8,%rsp
 ec6:	c3                   	retq   

Disassembly of section .plt:

0000000000000ed0 <.plt>:
     ed0:	ff 35 32 31 20 00    	pushq  0x203132(%rip)        # 204008 <_GLOBAL_OFFSET_TABLE_+0x8>
     ed6:	ff 25 34 31 20 00    	jmpq   *0x203134(%rip)        # 204010 <_GLOBAL_OFFSET_TABLE_+0x10>
     edc:	0f 1f 40 00          	nopl   0x0(%rax)

0000000000000ee0 <getenv@plt>:
     ee0:	ff 25 32 31 20 00    	jmpq   *0x203132(%rip)        # 204018 <getenv@GLIBC_2.2.5>
     ee6:	68 00 00 00 00       	pushq  $0x0
     eeb:	e9 e0 ff ff ff       	jmpq   ed0 <.plt>

0000000000000ef0 <__errno_location@plt>:
     ef0:	ff 25 2a 31 20 00    	jmpq   *0x20312a(%rip)        # 204020 <__errno_location@GLIBC_2.2.5>
     ef6:	68 01 00 00 00       	pushq  $0x1
     efb:	e9 d0 ff ff ff       	jmpq   ed0 <.plt>

0000000000000f00 <strcpy@plt>:
     f00:	ff 25 22 31 20 00    	jmpq   *0x203122(%rip)        # 204028 <strcpy@GLIBC_2.2.5>
     f06:	68 02 00 00 00       	pushq  $0x2
     f0b:	e9 c0 ff ff ff       	jmpq   ed0 <.plt>

0000000000000f10 <puts@plt>:
     f10:	ff 25 1a 31 20 00    	jmpq   *0x20311a(%rip)        # 204030 <puts@GLIBC_2.2.5>
     f16:	68 03 00 00 00       	pushq  $0x3
     f1b:	e9 b0 ff ff ff       	jmpq   ed0 <.plt>

0000000000000f20 <write@plt>:
     f20:	ff 25 12 31 20 00    	jmpq   *0x203112(%rip)        # 204038 <write@GLIBC_2.2.5>
     f26:	68 04 00 00 00       	pushq  $0x4
     f2b:	e9 a0 ff ff ff       	jmpq   ed0 <.plt>

0000000000000f30 <strlen@plt>:
     f30:	ff 25 0a 31 20 00    	jmpq   *0x20310a(%rip)        # 204040 <strlen@GLIBC_2.2.5>
     f36:	68 05 00 00 00       	pushq  $0x5
     f3b:	e9 90 ff ff ff       	jmpq   ed0 <.plt>

0000000000000f40 <htons@plt>:
     f40:	ff 25 02 31 20 00    	jmpq   *0x203102(%rip)        # 204048 <htons@GLIBC_2.2.5>
     f46:	68 06 00 00 00       	pushq  $0x6
     f4b:	e9 80 ff ff ff       	jmpq   ed0 <.plt>

0000000000000f50 <printf@plt>:
     f50:	ff 25 fa 30 20 00    	jmpq   *0x2030fa(%rip)        # 204050 <printf@GLIBC_2.2.5>
     f56:	68 07 00 00 00       	pushq  $0x7
     f5b:	e9 70 ff ff ff       	jmpq   ed0 <.plt>

0000000000000f60 <alarm@plt>:
     f60:	ff 25 f2 30 20 00    	jmpq   *0x2030f2(%rip)        # 204058 <alarm@GLIBC_2.2.5>
     f66:	68 08 00 00 00       	pushq  $0x8
     f6b:	e9 60 ff ff ff       	jmpq   ed0 <.plt>

0000000000000f70 <close@plt>:
     f70:	ff 25 ea 30 20 00    	jmpq   *0x2030ea(%rip)        # 204060 <close@GLIBC_2.2.5>
     f76:	68 09 00 00 00       	pushq  $0x9
     f7b:	e9 50 ff ff ff       	jmpq   ed0 <.plt>

0000000000000f80 <read@plt>:
     f80:	ff 25 e2 30 20 00    	jmpq   *0x2030e2(%rip)        # 204068 <read@GLIBC_2.2.5>
     f86:	68 0a 00 00 00       	pushq  $0xa
     f8b:	e9 40 ff ff ff       	jmpq   ed0 <.plt>

0000000000000f90 <fgets@plt>:
     f90:	ff 25 da 30 20 00    	jmpq   *0x2030da(%rip)        # 204070 <fgets@GLIBC_2.2.5>
     f96:	68 0b 00 00 00       	pushq  $0xb
     f9b:	e9 30 ff ff ff       	jmpq   ed0 <.plt>

0000000000000fa0 <strcmp@plt>:
     fa0:	ff 25 d2 30 20 00    	jmpq   *0x2030d2(%rip)        # 204078 <strcmp@GLIBC_2.2.5>
     fa6:	68 0c 00 00 00       	pushq  $0xc
     fab:	e9 20 ff ff ff       	jmpq   ed0 <.plt>

0000000000000fb0 <signal@plt>:
     fb0:	ff 25 ca 30 20 00    	jmpq   *0x2030ca(%rip)        # 204080 <signal@GLIBC_2.2.5>
     fb6:	68 0d 00 00 00       	pushq  $0xd
     fbb:	e9 10 ff ff ff       	jmpq   ed0 <.plt>

0000000000000fc0 <gethostbyname@plt>:
     fc0:	ff 25 c2 30 20 00    	jmpq   *0x2030c2(%rip)        # 204088 <gethostbyname@GLIBC_2.2.5>
     fc6:	68 0e 00 00 00       	pushq  $0xe
     fcb:	e9 00 ff ff ff       	jmpq   ed0 <.plt>

0000000000000fd0 <fprintf@plt>:
     fd0:	ff 25 ba 30 20 00    	jmpq   *0x2030ba(%rip)        # 204090 <fprintf@GLIBC_2.2.5>
     fd6:	68 0f 00 00 00       	pushq  $0xf
     fdb:	e9 f0 fe ff ff       	jmpq   ed0 <.plt>

0000000000000fe0 <memcpy@plt>:
     fe0:	ff 25 b2 30 20 00    	jmpq   *0x2030b2(%rip)        # 204098 <memcpy@GLIBC_2.14>
     fe6:	68 10 00 00 00       	pushq  $0x10
     feb:	e9 e0 fe ff ff       	jmpq   ed0 <.plt>

0000000000000ff0 <fflush@plt>:
     ff0:	ff 25 aa 30 20 00    	jmpq   *0x2030aa(%rip)        # 2040a0 <fflush@GLIBC_2.2.5>
     ff6:	68 11 00 00 00       	pushq  $0x11
     ffb:	e9 d0 fe ff ff       	jmpq   ed0 <.plt>

0000000000001000 <__isoc99_sscanf@plt>:
    1000:	ff 25 a2 30 20 00    	jmpq   *0x2030a2(%rip)        # 2040a8 <__isoc99_sscanf@GLIBC_2.7>
    1006:	68 12 00 00 00       	pushq  $0x12
    100b:	e9 c0 fe ff ff       	jmpq   ed0 <.plt>

0000000000001010 <bcopy@plt>:
    1010:	ff 25 9a 30 20 00    	jmpq   *0x20309a(%rip)        # 2040b0 <bcopy@GLIBC_2.2.5>
    1016:	68 13 00 00 00       	pushq  $0x13
    101b:	e9 b0 fe ff ff       	jmpq   ed0 <.plt>

0000000000001020 <fopen@plt>:
    1020:	ff 25 92 30 20 00    	jmpq   *0x203092(%rip)        # 2040b8 <fopen@GLIBC_2.2.5>
    1026:	68 14 00 00 00       	pushq  $0x14
    102b:	e9 a0 fe ff ff       	jmpq   ed0 <.plt>

0000000000001030 <bzero@plt>:
    1030:	ff 25 8a 30 20 00    	jmpq   *0x20308a(%rip)        # 2040c0 <bzero@GLIBC_2.2.5>
    1036:	68 15 00 00 00       	pushq  $0x15
    103b:	e9 90 fe ff ff       	jmpq   ed0 <.plt>

0000000000001040 <atoi@plt>:
    1040:	ff 25 82 30 20 00    	jmpq   *0x203082(%rip)        # 2040c8 <atoi@GLIBC_2.2.5>
    1046:	68 16 00 00 00       	pushq  $0x16
    104b:	e9 80 fe ff ff       	jmpq   ed0 <.plt>

0000000000001050 <sprintf@plt>:
    1050:	ff 25 7a 30 20 00    	jmpq   *0x20307a(%rip)        # 2040d0 <sprintf@GLIBC_2.2.5>
    1056:	68 17 00 00 00       	pushq  $0x17
    105b:	e9 70 fe ff ff       	jmpq   ed0 <.plt>

0000000000001060 <exit@plt>:
    1060:	ff 25 72 30 20 00    	jmpq   *0x203072(%rip)        # 2040d8 <exit@GLIBC_2.2.5>
    1066:	68 18 00 00 00       	pushq  $0x18
    106b:	e9 60 fe ff ff       	jmpq   ed0 <.plt>

0000000000001070 <connect@plt>:
    1070:	ff 25 6a 30 20 00    	jmpq   *0x20306a(%rip)        # 2040e0 <connect@GLIBC_2.2.5>
    1076:	68 19 00 00 00       	pushq  $0x19
    107b:	e9 50 fe ff ff       	jmpq   ed0 <.plt>

0000000000001080 <sleep@plt>:
    1080:	ff 25 62 30 20 00    	jmpq   *0x203062(%rip)        # 2040e8 <sleep@GLIBC_2.2.5>
    1086:	68 1a 00 00 00       	pushq  $0x1a
    108b:	e9 40 fe ff ff       	jmpq   ed0 <.plt>

0000000000001090 <__ctype_b_loc@plt>:
    1090:	ff 25 5a 30 20 00    	jmpq   *0x20305a(%rip)        # 2040f0 <__ctype_b_loc@GLIBC_2.3>
    1096:	68 1b 00 00 00       	pushq  $0x1b
    109b:	e9 30 fe ff ff       	jmpq   ed0 <.plt>

00000000000010a0 <socket@plt>:
    10a0:	ff 25 52 30 20 00    	jmpq   *0x203052(%rip)        # 2040f8 <socket@GLIBC_2.2.5>
    10a6:	68 1c 00 00 00       	pushq  $0x1c
    10ab:	e9 20 fe ff ff       	jmpq   ed0 <.plt>

Disassembly of section .plt.got:

00000000000010b0 <__cxa_finalize@plt>:
    10b0:	ff 25 42 2f 20 00    	jmpq   *0x202f42(%rip)        # 203ff8 <__cxa_finalize@GLIBC_2.2.5>
    10b6:	66 90                	xchg   %ax,%ax

Disassembly of section .text:

00000000000010c0 <_start>:
    10c0:	31 ed                	xor    %ebp,%ebp
    10c2:	49 89 d1             	mov    %rdx,%r9
    10c5:	5e                   	pop    %rsi
    10c6:	48 89 e2             	mov    %rsp,%rdx
    10c9:	48 83 e4 f0          	and    $0xfffffffffffffff0,%rsp
    10cd:	50                   	push   %rax
    10ce:	54                   	push   %rsp
    10cf:	4c 8d 05 2a 1b 00 00 	lea    0x1b2a(%rip),%r8        # 2c00 <__libc_csu_fini>
    10d6:	48 8d 0d b3 1a 00 00 	lea    0x1ab3(%rip),%rcx        # 2b90 <__libc_csu_init>
    10dd:	48 8d 3d 0c 01 00 00 	lea    0x10c(%rip),%rdi        # 11f0 <main>
    10e4:	ff 15 ee 2e 20 00    	callq  *0x202eee(%rip)        # 203fd8 <__libc_start_main@GLIBC_2.2.5>
    10ea:	f4                   	hlt    
    10eb:	0f 1f 44 00 00       	nopl   0x0(%rax,%rax,1)

00000000000010f0 <deregister_tm_clones>:
    10f0:	48 8d 3d c9 36 20 00 	lea    0x2036c9(%rip),%rdi        # 2047c0 <stdout@@GLIBC_2.2.5>
    10f7:	48 8d 05 c9 36 20 00 	lea    0x2036c9(%rip),%rax        # 2047c7 <__TMC_END__+0x7>
    10fe:	55                   	push   %rbp
    10ff:	48 29 f8             	sub    %rdi,%rax
    1102:	48 89 e5             	mov    %rsp,%rbp
    1105:	48 83 f8 0e          	cmp    $0xe,%rax
    1109:	76 15                	jbe    1120 <deregister_tm_clones+0x30>
    110b:	48 8b 05 be 2e 20 00 	mov    0x202ebe(%rip),%rax        # 203fd0 <_ITM_deregisterTMCloneTable>
    1112:	48 85 c0             	test   %rax,%rax
    1115:	74 09                	je     1120 <deregister_tm_clones+0x30>
    1117:	5d                   	pop    %rbp
    1118:	ff e0                	jmpq   *%rax
    111a:	66 0f 1f 44 00 00    	nopw   0x0(%rax,%rax,1)
    1120:	5d                   	pop    %rbp
    1121:	c3                   	retq   
    1122:	0f 1f 40 00          	nopl   0x0(%rax)
    1126:	66 2e 0f 1f 84 00 00 	nopw   %cs:0x0(%rax,%rax,1)
    112d:	00 00 00 

0000000000001130 <register_tm_clones>:
    1130:	48 8d 3d 89 36 20 00 	lea    0x203689(%rip),%rdi        # 2047c0 <stdout@@GLIBC_2.2.5>
    1137:	48 8d 35 82 36 20 00 	lea    0x203682(%rip),%rsi        # 2047c0 <stdout@@GLIBC_2.2.5>
    113e:	55                   	push   %rbp
    113f:	48 29 fe             	sub    %rdi,%rsi
    1142:	48 89 e5             	mov    %rsp,%rbp
    1145:	48 c1 fe 03          	sar    $0x3,%rsi
    1149:	48 89 f0             	mov    %rsi,%rax
    114c:	48 c1 e8 3f          	shr    $0x3f,%rax
    1150:	48 01 c6             	add    %rax,%rsi
    1153:	48 d1 fe             	sar    %rsi
    1156:	74 18                	je     1170 <register_tm_clones+0x40>
    1158:	48 8b 05 91 2e 20 00 	mov    0x202e91(%rip),%rax        # 203ff0 <_ITM_registerTMCloneTable>
    115f:	48 85 c0             	test   %rax,%rax
    1162:	74 0c                	je     1170 <register_tm_clones+0x40>
    1164:	5d                   	pop    %rbp
    1165:	ff e0                	jmpq   *%rax
    1167:	66 0f 1f 84 00 00 00 	nopw   0x0(%rax,%rax,1)
    116e:	00 00 
    1170:	5d                   	pop    %rbp
    1171:	c3                   	retq   
    1172:	0f 1f 40 00          	nopl   0x0(%rax)
    1176:	66 2e 0f 1f 84 00 00 	nopw   %cs:0x0(%rax,%rax,1)
    117d:	00 00 00 

0000000000001180 <__do_global_dtors_aux>:
    1180:	80 3d 61 36 20 00 00 	cmpb   $0x0,0x203661(%rip)        # 2047e8 <completed.6972>
    1187:	75 27                	jne    11b0 <__do_global_dtors_aux+0x30>
    1189:	48 83 3d 67 2e 20 00 	cmpq   $0x0,0x202e67(%rip)        # 203ff8 <__cxa_finalize@GLIBC_2.2.5>
    1190:	00 
    1191:	55                   	push   %rbp
    1192:	48 89 e5             	mov    %rsp,%rbp
    1195:	74 0c                	je     11a3 <__do_global_dtors_aux+0x23>
    1197:	48 8b 3d 6a 2f 20 00 	mov    0x202f6a(%rip),%rdi        # 204108 <__dso_handle>
    119e:	e8 0d ff ff ff       	callq  10b0 <__cxa_finalize@plt>
    11a3:	e8 48 ff ff ff       	callq  10f0 <deregister_tm_clones>
    11a8:	5d                   	pop    %rbp
    11a9:	c6 05 38 36 20 00 01 	movb   $0x1,0x203638(%rip)        # 2047e8 <completed.6972>
    11b0:	f3 c3                	repz retq 
    11b2:	0f 1f 40 00          	nopl   0x0(%rax)
    11b6:	66 2e 0f 1f 84 00 00 	nopw   %cs:0x0(%rax,%rax,1)
    11bd:	00 00 00 

00000000000011c0 <frame_dummy>:
    11c0:	48 8d 3d 21 2c 20 00 	lea    0x202c21(%rip),%rdi        # 203de8 <__JCR_END__>
    11c7:	48 83 3f 00          	cmpq   $0x0,(%rdi)
    11cb:	75 0b                	jne    11d8 <frame_dummy+0x18>
    11cd:	e9 5e ff ff ff       	jmpq   1130 <register_tm_clones>
    11d2:	66 0f 1f 44 00 00    	nopw   0x0(%rax,%rax,1)
    11d8:	48 8b 05 09 2e 20 00 	mov    0x202e09(%rip),%rax        # 203fe8 <_Jv_RegisterClasses>
    11df:	48 85 c0             	test   %rax,%rax
    11e2:	74 e9                	je     11cd <frame_dummy+0xd>
    11e4:	55                   	push   %rbp
    11e5:	48 89 e5             	mov    %rsp,%rbp
    11e8:	ff d0                	callq  *%rax
    11ea:	5d                   	pop    %rbp
    11eb:	e9 40 ff ff ff       	jmpq   1130 <register_tm_clones>

00000000000011f0 <main>:
    11f0:	55                   	push   %rbp
    11f1:	48 89 e5             	mov    %rsp,%rbp
    11f4:	48 83 ec 20          	sub    $0x20,%rsp
    11f8:	89 7d ec             	mov    %edi,-0x14(%rbp)
    11fb:	48 89 75 e0          	mov    %rsi,-0x20(%rbp)
    11ff:	83 7d ec 01          	cmpl   $0x1,-0x14(%rbp)
    1203:	75 13                	jne    1218 <main+0x28>
    1205:	48 8b 05 c4 35 20 00 	mov    0x2035c4(%rip),%rax        # 2047d0 <stdin@@GLIBC_2.2.5>
    120c:	48 89 05 dd 35 20 00 	mov    %rax,0x2035dd(%rip)        # 2047f0 <infile>
    1213:	e9 88 00 00 00       	jmpq   12a0 <main+0xb0>
    1218:	83 7d ec 02          	cmpl   $0x2,-0x14(%rbp)
    121c:	75 5d                	jne    127b <main+0x8b>
    121e:	48 8b 45 e0          	mov    -0x20(%rbp),%rax
    1222:	48 83 c0 08          	add    $0x8,%rax
    1226:	48 8b 00             	mov    (%rax),%rax
    1229:	48 8d 35 e8 19 00 00 	lea    0x19e8(%rip),%rsi        # 2c18 <_IO_stdin_used+0x8>
    1230:	48 89 c7             	mov    %rax,%rdi
    1233:	e8 e8 fd ff ff       	callq  1020 <fopen@plt>
    1238:	48 89 05 b1 35 20 00 	mov    %rax,0x2035b1(%rip)        # 2047f0 <infile>
    123f:	48 8b 05 aa 35 20 00 	mov    0x2035aa(%rip),%rax        # 2047f0 <infile>
    1246:	48 85 c0             	test   %rax,%rax
    1249:	75 55                	jne    12a0 <main+0xb0>
    124b:	48 8b 45 e0          	mov    -0x20(%rbp),%rax
    124f:	48 83 c0 08          	add    $0x8,%rax
    1253:	48 8b 10             	mov    (%rax),%rdx
    1256:	48 8b 45 e0          	mov    -0x20(%rbp),%rax
    125a:	48 8b 00             	mov    (%rax),%rax
    125d:	48 89 c6             	mov    %rax,%rsi
    1260:	48 8d 3d b3 19 00 00 	lea    0x19b3(%rip),%rdi        # 2c1a <_IO_stdin_used+0xa>
    1267:	b8 00 00 00 00       	mov    $0x0,%eax
    126c:	e8 df fc ff ff       	callq  f50 <printf@plt>
    1271:	bf 08 00 00 00       	mov    $0x8,%edi
    1276:	e8 e5 fd ff ff       	callq  1060 <exit@plt>
    127b:	48 8b 45 e0          	mov    -0x20(%rbp),%rax
    127f:	48 8b 00             	mov    (%rax),%rax
    1282:	48 89 c6             	mov    %rax,%rsi
    1285:	48 8d 3d ab 19 00 00 	lea    0x19ab(%rip),%rdi        # 2c37 <_IO_stdin_used+0x27>
    128c:	b8 00 00 00 00       	mov    $0x0,%eax
    1291:	e8 ba fc ff ff       	callq  f50 <printf@plt>
    1296:	bf 08 00 00 00       	mov    $0x8,%edi
    129b:	e8 c0 fd ff ff       	callq  1060 <exit@plt>
    12a0:	e8 cb 07 00 00       	callq  1a70 <initialize_bomb>
    12a5:	48 8d 3d ac 19 00 00 	lea    0x19ac(%rip),%rdi        # 2c58 <_IO_stdin_used+0x48>
    12ac:	e8 5f fc ff ff       	callq  f10 <puts@plt>
    12b1:	48 8d 3d e0 19 00 00 	lea    0x19e0(%rip),%rdi        # 2c98 <_IO_stdin_used+0x88>
    12b8:	e8 53 fc ff ff       	callq  f10 <puts@plt>
    12bd:	e8 85 08 00 00       	callq  1b47 <read_line>
    12c2:	48 89 45 f8          	mov    %rax,-0x8(%rbp)
    12c6:	48 8b 45 f8          	mov    -0x8(%rbp),%rax
    12ca:	48 89 c7             	mov    %rax,%rdi
    12cd:	e8 ca 00 00 00       	callq  139c <phase_1>
    12d2:	e8 15 0a 00 00       	callq  1cec <phase_defused>
    12d7:	48 8d 3d ea 19 00 00 	lea    0x19ea(%rip),%rdi        # 2cc8 <_IO_stdin_used+0xb8>
    12de:	e8 2d fc ff ff       	callq  f10 <puts@plt>
    12e3:	e8 5f 08 00 00       	callq  1b47 <read_line>
    12e8:	48 89 45 f8          	mov    %rax,-0x8(%rbp)
    12ec:	48 8b 45 f8          	mov    -0x8(%rbp),%rax
    12f0:	48 89 c7             	mov    %rax,%rdi
    12f3:	e8 cf 00 00 00       	callq  13c7 <phase_2>
    12f8:	e8 ef 09 00 00       	callq  1cec <phase_defused>
    12fd:	48 8d 3d ed 19 00 00 	lea    0x19ed(%rip),%rdi        # 2cf1 <_IO_stdin_used+0xe1>
    1304:	e8 07 fc ff ff       	callq  f10 <puts@plt>
    1309:	e8 39 08 00 00       	callq  1b47 <read_line>
    130e:	48 89 45 f8          	mov    %rax,-0x8(%rbp)
    1312:	48 8b 45 f8          	mov    -0x8(%rbp),%rax
    1316:	48 89 c7             	mov    %rax,%rdi
    1319:	e8 0d 01 00 00       	callq  142b <phase_3>
    131e:	e8 c9 09 00 00       	callq  1cec <phase_defused>
    1323:	48 8d 3d e5 19 00 00 	lea    0x19e5(%rip),%rdi        # 2d0f <_IO_stdin_used+0xff>
    132a:	e8 e1 fb ff ff       	callq  f10 <puts@plt>
    132f:	e8 13 08 00 00       	callq  1b47 <read_line>
    1334:	48 89 45 f8          	mov    %rax,-0x8(%rbp)
    1338:	48 8b 45 f8          	mov    -0x8(%rbp),%rax
    133c:	48 89 c7             	mov    %rax,%rdi
    133f:	e8 15 02 00 00       	callq  1559 <phase_4>
    1344:	e8 a3 09 00 00       	callq  1cec <phase_defused>
    1349:	48 8d 3d d0 19 00 00 	lea    0x19d0(%rip),%rdi        # 2d20 <_IO_stdin_used+0x110>
    1350:	e8 bb fb ff ff       	callq  f10 <puts@plt>
    1355:	e8 ed 07 00 00       	callq  1b47 <read_line>
    135a:	48 89 45 f8          	mov    %rax,-0x8(%rbp)
    135e:	48 8b 45 f8          	mov    -0x8(%rbp),%rax
    1362:	48 89 c7             	mov    %rax,%rdi
    1365:	e8 6e 02 00 00       	callq  15d8 <phase_5>
    136a:	e8 7d 09 00 00       	callq  1cec <phase_defused>
    136f:	48 8d 3d ce 19 00 00 	lea    0x19ce(%rip),%rdi        # 2d44 <_IO_stdin_used+0x134>
    1376:	e8 95 fb ff ff       	callq  f10 <puts@plt>
    137b:	e8 c7 07 00 00       	callq  1b47 <read_line>
    1380:	48 89 45 f8          	mov    %rax,-0x8(%rbp)
    1384:	48 8b 45 f8          	mov    -0x8(%rbp),%rax
    1388:	48 89 c7             	mov    %rax,%rdi
    138b:	e8 c3 02 00 00       	callq  1653 <phase_6>
    1390:	e8 57 09 00 00       	callq  1cec <phase_defused>
    1395:	b8 00 00 00 00       	mov    $0x0,%eax
    139a:	c9                   	leaveq 
    139b:	c3                   	retq   

000000000000139c <phase_1>:
    139c:	55                   	push   %rbp
    139d:	48 89 e5             	mov    %rsp,%rbp
    13a0:	48 83 ec 10          	sub    $0x10,%rsp
    13a4:	48 89 7d f8          	mov    %rdi,-0x8(%rbp)
    13a8:	48 8b 45 f8          	mov    -0x8(%rbp),%rax
    13ac:	48 8d 35 b5 19 00 00 	lea    0x19b5(%rip),%rsi        # 2d68 <_IO_stdin_used+0x158>
    13b3:	48 89 c7             	mov    %rax,%rdi
    13b6:	e8 33 06 00 00       	callq  19ee <strings_not_equal>
    13bb:	85 c0                	test   %eax,%eax
    13bd:	74 05                	je     13c4 <phase_1+0x28>
    13bf:	e8 02 09 00 00       	callq  1cc6 <explode_bomb>
    13c4:	90                   	nop
    13c5:	c9                   	leaveq 
    13c6:	c3                   	retq   

00000000000013c7 <phase_2>:
    13c7:	55                   	push   %rbp
    13c8:	48 89 e5             	mov    %rsp,%rbp
    13cb:	48 83 ec 30          	sub    $0x30,%rsp
    13cf:	48 89 7d d8          	mov    %rdi,-0x28(%rbp)
    13d3:	48 8d 55 e0          	lea    -0x20(%rbp),%rdx
    13d7:	48 8b 45 d8          	mov    -0x28(%rbp),%rax
    13db:	48 89 d6             	mov    %rdx,%rsi
    13de:	48 89 c7             	mov    %rax,%rdi
    13e1:	e8 6b 05 00 00       	callq  1951 <read_six_numbers>
    13e6:	8b 45 e0             	mov    -0x20(%rbp),%eax
    13e9:	85 c0                	test   %eax,%eax
    13eb:	79 05                	jns    13f2 <phase_2+0x2b>
    13ed:	e8 d4 08 00 00       	callq  1cc6 <explode_bomb>
    13f2:	c7 45 fc 01 00 00 00 	movl   $0x1,-0x4(%rbp)
    13f9:	eb 27                	jmp    1422 <phase_2+0x5b>
    13fb:	8b 45 fc             	mov    -0x4(%rbp),%eax
    13fe:	48 98                	cltq   
    1400:	8b 54 85 e0          	mov    -0x20(%rbp,%rax,4),%edx
    1404:	8b 45 fc             	mov    -0x4(%rbp),%eax
    1407:	83 e8 01             	sub    $0x1,%eax
    140a:	48 98                	cltq   
    140c:	8b 4c 85 e0          	mov    -0x20(%rbp,%rax,4),%ecx
    1410:	8b 45 fc             	mov    -0x4(%rbp),%eax
    1413:	01 c8                	add    %ecx,%eax
    1415:	39 c2                	cmp    %eax,%edx
    1417:	74 05                	je     141e <phase_2+0x57>
    1419:	e8 a8 08 00 00       	callq  1cc6 <explode_bomb>
    141e:	83 45 fc 01          	addl   $0x1,-0x4(%rbp)
    1422:	83 7d fc 05          	cmpl   $0x5,-0x4(%rbp)
    1426:	7e d3                	jle    13fb <phase_2+0x34>
    1428:	90                   	nop
    1429:	c9                   	leaveq 
    142a:	c3                   	retq   

000000000000142b <phase_3>:
    142b:	55                   	push   %rbp
    142c:	48 89 e5             	mov    %rsp,%rbp
    142f:	48 83 ec 20          	sub    $0x20,%rsp
    1433:	48 89 7d e8          	mov    %rdi,-0x18(%rbp)
    1437:	c7 45 fc 00 00 00 00 	movl   $0x0,-0x4(%rbp)
    143e:	c7 45 f8 00 00 00 00 	movl   $0x0,-0x8(%rbp)
    1445:	48 8d 4d f0          	lea    -0x10(%rbp),%rcx
    1449:	48 8d 55 f4          	lea    -0xc(%rbp),%rdx
    144d:	48 8b 45 e8          	mov    -0x18(%rbp),%rax
    1451:	48 8d 35 37 19 00 00 	lea    0x1937(%rip),%rsi        # 2d8f <_IO_stdin_used+0x17f>
    1458:	48 89 c7             	mov    %rax,%rdi
    145b:	b8 00 00 00 00       	mov    $0x0,%eax
    1460:	e8 9b fb ff ff       	callq  1000 <__isoc99_sscanf@plt>
    1465:	89 45 f8             	mov    %eax,-0x8(%rbp)
    1468:	83 7d f8 01          	cmpl   $0x1,-0x8(%rbp)
    146c:	7f 05                	jg     1473 <phase_3+0x48>
    146e:	e8 53 08 00 00       	callq  1cc6 <explode_bomb>
    1473:	8b 45 f4             	mov    -0xc(%rbp),%eax
    1476:	83 f8 07             	cmp    $0x7,%eax
    1479:	77 4b                	ja     14c6 <phase_3+0x9b>
    147b:	89 c0                	mov    %eax,%eax
    147d:	48 8d 14 85 00 00 00 	lea    0x0(,%rax,4),%rdx
    1484:	00 
    1485:	48 8d 05 0c 19 00 00 	lea    0x190c(%rip),%rax        # 2d98 <_IO_stdin_used+0x188>
    148c:	8b 04 02             	mov    (%rdx,%rax,1),%eax
    148f:	48 63 d0             	movslq %eax,%rdx
    1492:	48 8d 05 ff 18 00 00 	lea    0x18ff(%rip),%rax        # 2d98 <_IO_stdin_used+0x188>
    1499:	48 01 d0             	add    %rdx,%rax
    149c:	ff e0                	jmpq   *%rax
    149e:	81 45 fc e0 02 00 00 	addl   $0x2e0,-0x4(%rbp)
    14a5:	81 6d fc 7a 02 00 00 	subl   $0x27a,-0x4(%rbp)
    14ac:	83 45 fc 6a          	addl   $0x6a,-0x4(%rbp)
    14b0:	83 6d fc 47          	subl   $0x47,-0x4(%rbp)
    14b4:	83 45 fc 47          	addl   $0x47,-0x4(%rbp)
    14b8:	83 6d fc 47          	subl   $0x47,-0x4(%rbp)
    14bc:	83 45 fc 47          	addl   $0x47,-0x4(%rbp)
    14c0:	83 6d fc 47          	subl   $0x47,-0x4(%rbp)
    14c4:	eb 05                	jmp    14cb <phase_3+0xa0>
    14c6:	e8 fb 07 00 00       	callq  1cc6 <explode_bomb>
    14cb:	8b 45 f4             	mov    -0xc(%rbp),%eax
    14ce:	83 f8 05             	cmp    $0x5,%eax
    14d1:	7f 08                	jg     14db <phase_3+0xb0>
    14d3:	8b 45 f0             	mov    -0x10(%rbp),%eax
    14d6:	39 45 fc             	cmp    %eax,-0x4(%rbp)
    14d9:	74 05                	je     14e0 <phase_3+0xb5>
    14db:	e8 e6 07 00 00       	callq  1cc6 <explode_bomb>
    14e0:	90                   	nop
    14e1:	c9                   	leaveq 
    14e2:	c3                   	retq   

00000000000014e3 <func4>:
    14e3:	55                   	push   %rbp
    14e4:	48 89 e5             	mov    %rsp,%rbp
    14e7:	48 83 ec 20          	sub    $0x20,%rsp
    14eb:	89 7d ec             	mov    %edi,-0x14(%rbp)
    14ee:	89 75 e8             	mov    %esi,-0x18(%rbp)
    14f1:	89 55 e4             	mov    %edx,-0x1c(%rbp)
    14f4:	8b 45 e4             	mov    -0x1c(%rbp),%eax
    14f7:	2b 45 e8             	sub    -0x18(%rbp),%eax
    14fa:	89 c2                	mov    %eax,%edx
    14fc:	c1 ea 1f             	shr    $0x1f,%edx
    14ff:	01 d0                	add    %edx,%eax
    1501:	d1 f8                	sar    %eax
    1503:	89 c2                	mov    %eax,%edx
    1505:	8b 45 e8             	mov    -0x18(%rbp),%eax
    1508:	01 d0                	add    %edx,%eax
    150a:	89 45 fc             	mov    %eax,-0x4(%rbp)
    150d:	8b 45 fc             	mov    -0x4(%rbp),%eax
    1510:	3b 45 ec             	cmp    -0x14(%rbp),%eax
    1513:	7e 19                	jle    152e <func4+0x4b>
    1515:	8b 45 fc             	mov    -0x4(%rbp),%eax
    1518:	8d 50 ff             	lea    -0x1(%rax),%edx
    151b:	8b 4d e8             	mov    -0x18(%rbp),%ecx
    151e:	8b 45 ec             	mov    -0x14(%rbp),%eax
    1521:	89 ce                	mov    %ecx,%esi
    1523:	89 c7                	mov    %eax,%edi
    1525:	e8 b9 ff ff ff       	callq  14e3 <func4>
    152a:	01 c0                	add    %eax,%eax
    152c:	eb 29                	jmp    1557 <func4+0x74>
    152e:	8b 45 fc             	mov    -0x4(%rbp),%eax
    1531:	3b 45 ec             	cmp    -0x14(%rbp),%eax
    1534:	7d 1c                	jge    1552 <func4+0x6f>
    1536:	8b 45 fc             	mov    -0x4(%rbp),%eax
    1539:	8d 48 01             	lea    0x1(%rax),%ecx
    153c:	8b 55 e4             	mov    -0x1c(%rbp),%edx
    153f:	8b 45 ec             	mov    -0x14(%rbp),%eax
    1542:	89 ce                	mov    %ecx,%esi
    1544:	89 c7                	mov    %eax,%edi
    1546:	e8 98 ff ff ff       	callq  14e3 <func4>
    154b:	01 c0                	add    %eax,%eax
    154d:	83 c0 01             	add    $0x1,%eax
    1550:	eb 05                	jmp    1557 <func4+0x74>
    1552:	b8 00 00 00 00       	mov    $0x0,%eax
    1557:	c9                   	leaveq 
    1558:	c3                   	retq   

0000000000001559 <phase_4>:
    1559:	55                   	push   %rbp
    155a:	48 89 e5             	mov    %rsp,%rbp
    155d:	48 83 ec 30          	sub    $0x30,%rsp
    1561:	48 89 7d d8          	mov    %rdi,-0x28(%rbp)
    1565:	48 8d 4d ec          	lea    -0x14(%rbp),%rcx
    1569:	48 8d 55 f0          	lea    -0x10(%rbp),%rdx
    156d:	48 8b 45 d8          	mov    -0x28(%rbp),%rax
    1571:	48 8d 35 17 18 00 00 	lea    0x1817(%rip),%rsi        # 2d8f <_IO_stdin_used+0x17f>
    1578:	48 89 c7             	mov    %rax,%rdi
    157b:	b8 00 00 00 00       	mov    $0x0,%eax
    1580:	e8 7b fa ff ff       	callq  1000 <__isoc99_sscanf@plt>
    1585:	89 45 fc             	mov    %eax,-0x4(%rbp)
    1588:	83 7d fc 02          	cmpl   $0x2,-0x4(%rbp)
    158c:	75 0f                	jne    159d <phase_4+0x44>
    158e:	8b 45 f0             	mov    -0x10(%rbp),%eax
    1591:	85 c0                	test   %eax,%eax
    1593:	78 08                	js     159d <phase_4+0x44>
    1595:	8b 45 f0             	mov    -0x10(%rbp),%eax
    1598:	83 f8 0e             	cmp    $0xe,%eax
    159b:	7e 05                	jle    15a2 <phase_4+0x49>
    159d:	e8 24 07 00 00       	callq  1cc6 <explode_bomb>
    15a2:	c7 45 f8 06 00 00 00 	movl   $0x6,-0x8(%rbp)
    15a9:	8b 45 f0             	mov    -0x10(%rbp),%eax
    15ac:	ba 0e 00 00 00       	mov    $0xe,%edx
    15b1:	be 00 00 00 00       	mov    $0x0,%esi
    15b6:	89 c7                	mov    %eax,%edi
    15b8:	e8 26 ff ff ff       	callq  14e3 <func4>
    15bd:	89 45 f4             	mov    %eax,-0xc(%rbp)
    15c0:	8b 45 f4             	mov    -0xc(%rbp),%eax
    15c3:	3b 45 f8             	cmp    -0x8(%rbp),%eax
    15c6:	75 08                	jne    15d0 <phase_4+0x77>
    15c8:	8b 45 ec             	mov    -0x14(%rbp),%eax
    15cb:	3b 45 f8             	cmp    -0x8(%rbp),%eax
    15ce:	74 05                	je     15d5 <phase_4+0x7c>
    15d0:	e8 f1 06 00 00       	callq  1cc6 <explode_bomb>
    15d5:	90                   	nop
    15d6:	c9                   	leaveq 
    15d7:	c3                   	retq   

00000000000015d8 <phase_5>:
    15d8:	55                   	push   %rbp
    15d9:	48 89 e5             	mov    %rsp,%rbp
    15dc:	48 83 ec 20          	sub    $0x20,%rsp
    15e0:	48 89 7d e8          	mov    %rdi,-0x18(%rbp)
    15e4:	48 8b 45 e8          	mov    -0x18(%rbp),%rax
    15e8:	48 89 c7             	mov    %rax,%rdi
    15eb:	e8 cc 03 00 00       	callq  19bc <string_length>
    15f0:	89 45 f4             	mov    %eax,-0xc(%rbp)
    15f3:	83 7d f4 06          	cmpl   $0x6,-0xc(%rbp)
    15f7:	74 05                	je     15fe <phase_5+0x26>
    15f9:	e8 c8 06 00 00       	callq  1cc6 <explode_bomb>
    15fe:	c7 45 f8 00 00 00 00 	movl   $0x0,-0x8(%rbp)
    1605:	c7 45 fc 00 00 00 00 	movl   $0x0,-0x4(%rbp)
    160c:	eb 31                	jmp    163f <phase_5+0x67>
    160e:	8b 45 fc             	mov    -0x4(%rbp),%eax
    1611:	48 63 d0             	movslq %eax,%rdx
    1614:	48 8b 45 e8          	mov    -0x18(%rbp),%rax
    1618:	48 01 d0             	add    %rdx,%rax
    161b:	0f b6 00             	movzbl (%rax),%eax
    161e:	0f be c0             	movsbl %al,%eax
    1621:	83 e0 0f             	and    $0xf,%eax
    1624:	48 98                	cltq   
    1626:	48 8d 14 85 00 00 00 	lea    0x0(,%rax,4),%rdx
    162d:	00 
    162e:	48 8d 05 0b 2c 20 00 	lea    0x202c0b(%rip),%rax        # 204240 <array.2958>
    1635:	8b 04 02             	mov    (%rdx,%rax,1),%eax
    1638:	01 45 f8             	add    %eax,-0x8(%rbp)
    163b:	83 45 fc 01          	addl   $0x1,-0x4(%rbp)
    163f:	83 7d fc 05          	cmpl   $0x5,-0x4(%rbp)
    1643:	7e c9                	jle    160e <phase_5+0x36>
    1645:	83 7d f8 49          	cmpl   $0x49,-0x8(%rbp)
    1649:	74 05                	je     1650 <phase_5+0x78>
    164b:	e8 76 06 00 00       	callq  1cc6 <explode_bomb>
    1650:	90                   	nop
    1651:	c9                   	leaveq 
    1652:	c3                   	retq   

0000000000001653 <phase_6>:
    1653:	55                   	push   %rbp
    1654:	48 89 e5             	mov    %rsp,%rbp
    1657:	48 83 ec 70          	sub    $0x70,%rsp
    165b:	48 89 7d 98          	mov    %rdi,-0x68(%rbp)
    165f:	48 8d 05 5a 2c 20 00 	lea    0x202c5a(%rip),%rax        # 2042c0 <node1>
    1666:	48 89 45 e8          	mov    %rax,-0x18(%rbp)
    166a:	48 8d 55 d0          	lea    -0x30(%rbp),%rdx
    166e:	48 8b 45 98          	mov    -0x68(%rbp),%rax
    1672:	48 89 d6             	mov    %rdx,%rsi
    1675:	48 89 c7             	mov    %rax,%rdi
    1678:	e8 d4 02 00 00       	callq  1951 <read_six_numbers>
    167d:	c7 45 f4 00 00 00 00 	movl   $0x0,-0xc(%rbp)
    1684:	eb 54                	jmp    16da <phase_6+0x87>
    1686:	8b 45 f4             	mov    -0xc(%rbp),%eax
    1689:	48 98                	cltq   
    168b:	8b 44 85 d0          	mov    -0x30(%rbp,%rax,4),%eax
    168f:	85 c0                	test   %eax,%eax
    1691:	7e 0e                	jle    16a1 <phase_6+0x4e>
    1693:	8b 45 f4             	mov    -0xc(%rbp),%eax
    1696:	48 98                	cltq   
    1698:	8b 44 85 d0          	mov    -0x30(%rbp,%rax,4),%eax
    169c:	83 f8 06             	cmp    $0x6,%eax
    169f:	7e 05                	jle    16a6 <phase_6+0x53>
    16a1:	e8 20 06 00 00       	callq  1cc6 <explode_bomb>
    16a6:	8b 45 f4             	mov    -0xc(%rbp),%eax
    16a9:	83 c0 01             	add    $0x1,%eax
    16ac:	89 45 f0             	mov    %eax,-0x10(%rbp)
    16af:	eb 1f                	jmp    16d0 <phase_6+0x7d>
    16b1:	8b 45 f4             	mov    -0xc(%rbp),%eax
    16b4:	48 98                	cltq   
    16b6:	8b 54 85 d0          	mov    -0x30(%rbp,%rax,4),%edx
    16ba:	8b 45 f0             	mov    -0x10(%rbp),%eax
    16bd:	48 98                	cltq   
    16bf:	8b 44 85 d0          	mov    -0x30(%rbp,%rax,4),%eax
    16c3:	39 c2                	cmp    %eax,%edx
    16c5:	75 05                	jne    16cc <phase_6+0x79>
    16c7:	e8 fa 05 00 00       	callq  1cc6 <explode_bomb>
    16cc:	83 45 f0 01          	addl   $0x1,-0x10(%rbp)
    16d0:	83 7d f0 05          	cmpl   $0x5,-0x10(%rbp)
    16d4:	7e db                	jle    16b1 <phase_6+0x5e>
    16d6:	83 45 f4 01          	addl   $0x1,-0xc(%rbp)
    16da:	83 7d f4 05          	cmpl   $0x5,-0xc(%rbp)
    16de:	7e a6                	jle    1686 <phase_6+0x33>
    16e0:	c7 45 f4 00 00 00 00 	movl   $0x0,-0xc(%rbp)
    16e7:	eb 1d                	jmp    1706 <phase_6+0xb3>
    16e9:	8b 45 f4             	mov    -0xc(%rbp),%eax
    16ec:	48 98                	cltq   
    16ee:	8b 44 85 d0          	mov    -0x30(%rbp,%rax,4),%eax
    16f2:	ba 07 00 00 00       	mov    $0x7,%edx
    16f7:	29 c2                	sub    %eax,%edx
    16f9:	8b 45 f4             	mov    -0xc(%rbp),%eax
    16fc:	48 98                	cltq   
    16fe:	89 54 85 d0          	mov    %edx,-0x30(%rbp,%rax,4)
    1702:	83 45 f4 01          	addl   $0x1,-0xc(%rbp)
    1706:	83 7d f4 05          	cmpl   $0x5,-0xc(%rbp)
    170a:	7e dd                	jle    16e9 <phase_6+0x96>
    170c:	c7 45 f4 00 00 00 00 	movl   $0x0,-0xc(%rbp)
    1713:	eb 41                	jmp    1756 <phase_6+0x103>
    1715:	48 8b 45 e8          	mov    -0x18(%rbp),%rax
    1719:	48 89 45 f8          	mov    %rax,-0x8(%rbp)
    171d:	c7 45 f0 01 00 00 00 	movl   $0x1,-0x10(%rbp)
    1724:	eb 10                	jmp    1736 <phase_6+0xe3>
    1726:	48 8b 45 f8          	mov    -0x8(%rbp),%rax
    172a:	48 8b 40 08          	mov    0x8(%rax),%rax
    172e:	48 89 45 f8          	mov    %rax,-0x8(%rbp)
    1732:	83 45 f0 01          	addl   $0x1,-0x10(%rbp)
    1736:	8b 45 f4             	mov    -0xc(%rbp),%eax
    1739:	48 98                	cltq   
    173b:	8b 44 85 d0          	mov    -0x30(%rbp,%rax,4),%eax
    173f:	3b 45 f0             	cmp    -0x10(%rbp),%eax
    1742:	7f e2                	jg     1726 <phase_6+0xd3>
    1744:	8b 45 f4             	mov    -0xc(%rbp),%eax
    1747:	48 98                	cltq   
    1749:	48 8b 55 f8          	mov    -0x8(%rbp),%rdx
    174d:	48 89 54 c5 a0       	mov    %rdx,-0x60(%rbp,%rax,8)
    1752:	83 45 f4 01          	addl   $0x1,-0xc(%rbp)
    1756:	83 7d f4 05          	cmpl   $0x5,-0xc(%rbp)
    175a:	7e b9                	jle    1715 <phase_6+0xc2>
    175c:	48 8b 45 a0          	mov    -0x60(%rbp),%rax
    1760:	48 89 45 e8          	mov    %rax,-0x18(%rbp)
    1764:	48 8b 45 e8          	mov    -0x18(%rbp),%rax
    1768:	48 89 45 f8          	mov    %rax,-0x8(%rbp)
    176c:	c7 45 f4 01 00 00 00 	movl   $0x1,-0xc(%rbp)
    1773:	eb 22                	jmp    1797 <phase_6+0x144>
    1775:	8b 45 f4             	mov    -0xc(%rbp),%eax
    1778:	48 98                	cltq   
    177a:	48 8b 54 c5 a0       	mov    -0x60(%rbp,%rax,8),%rdx
    177f:	48 8b 45 f8          	mov    -0x8(%rbp),%rax
    1783:	48 89 50 08          	mov    %rdx,0x8(%rax)
    1787:	48 8b 45 f8          	mov    -0x8(%rbp),%rax
    178b:	48 8b 40 08          	mov    0x8(%rax),%rax
    178f:	48 89 45 f8          	mov    %rax,-0x8(%rbp)
    1793:	83 45 f4 01          	addl   $0x1,-0xc(%rbp)
    1797:	83 7d f4 05          	cmpl   $0x5,-0xc(%rbp)
    179b:	7e d8                	jle    1775 <phase_6+0x122>
    179d:	48 8b 45 f8          	mov    -0x8(%rbp),%rax
    17a1:	48 c7 40 08 00 00 00 	movq   $0x0,0x8(%rax)
    17a8:	00 
    17a9:	48 8b 45 e8          	mov    -0x18(%rbp),%rax
    17ad:	48 89 45 f8          	mov    %rax,-0x8(%rbp)
    17b1:	c7 45 f4 00 00 00 00 	movl   $0x0,-0xc(%rbp)
    17b8:	eb 29                	jmp    17e3 <phase_6+0x190>
    17ba:	48 8b 45 f8          	mov    -0x8(%rbp),%rax
    17be:	8b 10                	mov    (%rax),%edx
    17c0:	48 8b 45 f8          	mov    -0x8(%rbp),%rax
    17c4:	48 8b 40 08          	mov    0x8(%rax),%rax
    17c8:	8b 00                	mov    (%rax),%eax
    17ca:	39 c2                	cmp    %eax,%edx
    17cc:	7d 05                	jge    17d3 <phase_6+0x180>
    17ce:	e8 f3 04 00 00       	callq  1cc6 <explode_bomb>
    17d3:	48 8b 45 f8          	mov    -0x8(%rbp),%rax
    17d7:	48 8b 40 08          	mov    0x8(%rax),%rax
    17db:	48 89 45 f8          	mov    %rax,-0x8(%rbp)
    17df:	83 45 f4 01          	addl   $0x1,-0xc(%rbp)
    17e3:	83 7d f4 04          	cmpl   $0x4,-0xc(%rbp)
    17e7:	7e d1                	jle    17ba <phase_6+0x167>
    17e9:	90                   	nop
    17ea:	c9                   	leaveq 
    17eb:	c3                   	retq   

00000000000017ec <fun7>:
    17ec:	55                   	push   %rbp
    17ed:	48 89 e5             	mov    %rsp,%rbp
    17f0:	48 83 ec 10          	sub    $0x10,%rsp
    17f4:	48 89 7d f8          	mov    %rdi,-0x8(%rbp)
    17f8:	89 75 f4             	mov    %esi,-0xc(%rbp)
    17fb:	48 83 7d f8 00       	cmpq   $0x0,-0x8(%rbp)
    1800:	75 07                	jne    1809 <fun7+0x1d>
    1802:	b8 ff ff ff ff       	mov    $0xffffffff,%eax
    1807:	eb 50                	jmp    1859 <fun7+0x6d>
    1809:	48 8b 45 f8          	mov    -0x8(%rbp),%rax
    180d:	8b 00                	mov    (%rax),%eax
    180f:	3b 45 f4             	cmp    -0xc(%rbp),%eax
    1812:	7e 19                	jle    182d <fun7+0x41>
    1814:	48 8b 45 f8          	mov    -0x8(%rbp),%rax
    1818:	48 8b 40 08          	mov    0x8(%rax),%rax
    181c:	8b 55 f4             	mov    -0xc(%rbp),%edx
    181f:	89 d6                	mov    %edx,%esi
    1821:	48 89 c7             	mov    %rax,%rdi
    1824:	e8 c3 ff ff ff       	callq  17ec <fun7>
    1829:	01 c0                	add    %eax,%eax
    182b:	eb 2c                	jmp    1859 <fun7+0x6d>
    182d:	48 8b 45 f8          	mov    -0x8(%rbp),%rax
    1831:	8b 00                	mov    (%rax),%eax
    1833:	3b 45 f4             	cmp    -0xc(%rbp),%eax
    1836:	75 07                	jne    183f <fun7+0x53>
    1838:	b8 00 00 00 00       	mov    $0x0,%eax
    183d:	eb 1a                	jmp    1859 <fun7+0x6d>
    183f:	48 8b 45 f8          	mov    -0x8(%rbp),%rax
    1843:	48 8b 40 10          	mov    0x10(%rax),%rax
    1847:	8b 55 f4             	mov    -0xc(%rbp),%edx
    184a:	89 d6                	mov    %edx,%esi
    184c:	48 89 c7             	mov    %rax,%rdi
    184f:	e8 98 ff ff ff       	callq  17ec <fun7>
    1854:	01 c0                	add    %eax,%eax
    1856:	83 c0 01             	add    $0x1,%eax
    1859:	c9                   	leaveq 
    185a:	c3                   	retq   

000000000000185b <secret_phase>:
    185b:	55                   	push   %rbp
    185c:	48 89 e5             	mov    %rsp,%rbp
    185f:	48 83 ec 10          	sub    $0x10,%rsp
    1863:	e8 df 02 00 00       	callq  1b47 <read_line>
    1868:	48 89 45 f8          	mov    %rax,-0x8(%rbp)
    186c:	48 8b 45 f8          	mov    -0x8(%rbp),%rax
    1870:	48 89 c7             	mov    %rax,%rdi
    1873:	e8 c8 f7 ff ff       	callq  1040 <atoi@plt>
    1878:	89 45 f4             	mov    %eax,-0xc(%rbp)
    187b:	83 7d f4 00          	cmpl   $0x0,-0xc(%rbp)
    187f:	7e 09                	jle    188a <secret_phase+0x2f>
    1881:	81 7d f4 e9 03 00 00 	cmpl   $0x3e9,-0xc(%rbp)
    1888:	7e 05                	jle    188f <secret_phase+0x34>
    188a:	e8 37 04 00 00       	callq  1cc6 <explode_bomb>
    188f:	8b 45 f4             	mov    -0xc(%rbp),%eax
    1892:	89 c6                	mov    %eax,%esi
    1894:	48 8d 3d f5 2a 20 00 	lea    0x202af5(%rip),%rdi        # 204390 <n1>
    189b:	e8 4c ff ff ff       	callq  17ec <fun7>
    18a0:	89 45 f0             	mov    %eax,-0x10(%rbp)
    18a3:	83 7d f0 02          	cmpl   $0x2,-0x10(%rbp)
    18a7:	74 05                	je     18ae <secret_phase+0x53>
    18a9:	e8 18 04 00 00       	callq  1cc6 <explode_bomb>
    18ae:	48 8d 3d 03 15 00 00 	lea    0x1503(%rip),%rdi        # 2db8 <_IO_stdin_used+0x1a8>
    18b5:	e8 56 f6 ff ff       	callq  f10 <puts@plt>
    18ba:	e8 2d 04 00 00       	callq  1cec <phase_defused>
    18bf:	90                   	nop
    18c0:	c9                   	leaveq 
    18c1:	c3                   	retq   

00000000000018c2 <sig_handler>:
    18c2:	55                   	push   %rbp
    18c3:	48 89 e5             	mov    %rsp,%rbp
    18c6:	48 83 ec 10          	sub    $0x10,%rsp
    18ca:	89 7d fc             	mov    %edi,-0x4(%rbp)
    18cd:	48 8d 3d 6c 15 00 00 	lea    0x156c(%rip),%rdi        # 2e40 <_IO_stdin_used+0x230>
    18d4:	e8 37 f6 ff ff       	callq  f10 <puts@plt>
    18d9:	bf 03 00 00 00       	mov    $0x3,%edi
    18de:	e8 9d f7 ff ff       	callq  1080 <sleep@plt>
    18e3:	48 8d 3d 8e 15 00 00 	lea    0x158e(%rip),%rdi        # 2e78 <_IO_stdin_used+0x268>
    18ea:	b8 00 00 00 00       	mov    $0x0,%eax
    18ef:	e8 5c f6 ff ff       	callq  f50 <printf@plt>
    18f4:	48 8b 05 c5 2e 20 00 	mov    0x202ec5(%rip),%rax        # 2047c0 <stdout@@GLIBC_2.2.5>
    18fb:	48 89 c7             	mov    %rax,%rdi
    18fe:	e8 ed f6 ff ff       	callq  ff0 <fflush@plt>
    1903:	bf 01 00 00 00       	mov    $0x1,%edi
    1908:	e8 73 f7 ff ff       	callq  1080 <sleep@plt>
    190d:	48 8d 3d 6c 15 00 00 	lea    0x156c(%rip),%rdi        # 2e80 <_IO_stdin_used+0x270>
    1914:	e8 f7 f5 ff ff       	callq  f10 <puts@plt>
    1919:	bf 10 00 00 00       	mov    $0x10,%edi
    191e:	e8 3d f7 ff ff       	callq  1060 <exit@plt>

0000000000001923 <invalid_phase>:
    1923:	55                   	push   %rbp
    1924:	48 89 e5             	mov    %rsp,%rbp
    1927:	48 83 ec 10          	sub    $0x10,%rsp
    192b:	48 89 7d f8          	mov    %rdi,-0x8(%rbp)
    192f:	48 8b 45 f8          	mov    -0x8(%rbp),%rax
    1933:	48 89 c6             	mov    %rax,%rsi
    1936:	48 8d 3d 4b 15 00 00 	lea    0x154b(%rip),%rdi        # 2e88 <_IO_stdin_used+0x278>
    193d:	b8 00 00 00 00       	mov    $0x0,%eax
    1942:	e8 09 f6 ff ff       	callq  f50 <printf@plt>
    1947:	bf 08 00 00 00       	mov    $0x8,%edi
    194c:	e8 0f f7 ff ff       	callq  1060 <exit@plt>

0000000000001951 <read_six_numbers>:
    1951:	55                   	push   %rbp
    1952:	48 89 e5             	mov    %rsp,%rbp
    1955:	48 83 ec 20          	sub    $0x20,%rsp
    1959:	48 89 7d e8          	mov    %rdi,-0x18(%rbp)
    195d:	48 89 75 e0          	mov    %rsi,-0x20(%rbp)
    1961:	48 8b 45 e0          	mov    -0x20(%rbp),%rax
    1965:	48 8d 78 14          	lea    0x14(%rax),%rdi
    1969:	48 8b 45 e0          	mov    -0x20(%rbp),%rax
    196d:	48 8d 70 10          	lea    0x10(%rax),%rsi
    1971:	48 8b 45 e0          	mov    -0x20(%rbp),%rax
    1975:	4c 8d 48 0c          	lea    0xc(%rax),%r9
    1979:	48 8b 45 e0          	mov    -0x20(%rbp),%rax
    197d:	4c 8d 40 08          	lea    0x8(%rax),%r8
    1981:	48 8b 45 e0          	mov    -0x20(%rbp),%rax
    1985:	48 8d 48 04          	lea    0x4(%rax),%rcx
    1989:	48 8b 55 e0          	mov    -0x20(%rbp),%rdx
    198d:	48 8b 45 e8          	mov    -0x18(%rbp),%rax
    1991:	57                   	push   %rdi
    1992:	56                   	push   %rsi
    1993:	48 8d 35 ff 14 00 00 	lea    0x14ff(%rip),%rsi        # 2e99 <_IO_stdin_used+0x289>
    199a:	48 89 c7             	mov    %rax,%rdi
    199d:	b8 00 00 00 00       	mov    $0x0,%eax
    19a2:	e8 59 f6 ff ff       	callq  1000 <__isoc99_sscanf@plt>
    19a7:	48 83 c4 10          	add    $0x10,%rsp
    19ab:	89 45 fc             	mov    %eax,-0x4(%rbp)
    19ae:	83 7d fc 05          	cmpl   $0x5,-0x4(%rbp)
    19b2:	7f 05                	jg     19b9 <read_six_numbers+0x68>
    19b4:	e8 0d 03 00 00       	callq  1cc6 <explode_bomb>
    19b9:	90                   	nop
    19ba:	c9                   	leaveq 
    19bb:	c3                   	retq   

00000000000019bc <string_length>:
    19bc:	55                   	push   %rbp
    19bd:	48 89 e5             	mov    %rsp,%rbp
    19c0:	48 89 7d e8          	mov    %rdi,-0x18(%rbp)
    19c4:	48 8b 45 e8          	mov    -0x18(%rbp),%rax
    19c8:	48 89 45 f0          	mov    %rax,-0x10(%rbp)
    19cc:	c7 45 fc 00 00 00 00 	movl   $0x0,-0x4(%rbp)
    19d3:	eb 09                	jmp    19de <string_length+0x22>
    19d5:	48 83 45 f0 01       	addq   $0x1,-0x10(%rbp)
    19da:	83 45 fc 01          	addl   $0x1,-0x4(%rbp)
    19de:	48 8b 45 f0          	mov    -0x10(%rbp),%rax
    19e2:	0f b6 00             	movzbl (%rax),%eax
    19e5:	84 c0                	test   %al,%al
    19e7:	75 ec                	jne    19d5 <string_length+0x19>
    19e9:	8b 45 fc             	mov    -0x4(%rbp),%eax
    19ec:	5d                   	pop    %rbp
    19ed:	c3                   	retq   

00000000000019ee <strings_not_equal>:
    19ee:	55                   	push   %rbp
    19ef:	48 89 e5             	mov    %rsp,%rbp
    19f2:	53                   	push   %rbx
    19f3:	48 83 ec 20          	sub    $0x20,%rsp
    19f7:	48 89 7d e0          	mov    %rdi,-0x20(%rbp)
    19fb:	48 89 75 d8          	mov    %rsi,-0x28(%rbp)
    19ff:	48 8b 45 e0          	mov    -0x20(%rbp),%rax
    1a03:	48 89 c7             	mov    %rax,%rdi
    1a06:	e8 b1 ff ff ff       	callq  19bc <string_length>
    1a0b:	89 c3                	mov    %eax,%ebx
    1a0d:	48 8b 45 d8          	mov    -0x28(%rbp),%rax
    1a11:	48 89 c7             	mov    %rax,%rdi
    1a14:	e8 a3 ff ff ff       	callq  19bc <string_length>
    1a19:	39 c3                	cmp    %eax,%ebx
    1a1b:	74 07                	je     1a24 <strings_not_equal+0x36>
    1a1d:	b8 01 00 00 00       	mov    $0x1,%eax
    1a22:	eb 45                	jmp    1a69 <strings_not_equal+0x7b>
    1a24:	48 8b 45 e0          	mov    -0x20(%rbp),%rax
    1a28:	48 89 45 f0          	mov    %rax,-0x10(%rbp)
    1a2c:	48 8b 45 d8          	mov    -0x28(%rbp),%rax
    1a30:	48 89 45 e8          	mov    %rax,-0x18(%rbp)
    1a34:	eb 23                	jmp    1a59 <strings_not_equal+0x6b>
    1a36:	48 8b 45 f0          	mov    -0x10(%rbp),%rax
    1a3a:	0f b6 10             	movzbl (%rax),%edx
    1a3d:	48 8b 45 e8          	mov    -0x18(%rbp),%rax
    1a41:	0f b6 00             	movzbl (%rax),%eax
    1a44:	38 c2                	cmp    %al,%dl
    1a46:	74 07                	je     1a4f <strings_not_equal+0x61>
    1a48:	b8 01 00 00 00       	mov    $0x1,%eax
    1a4d:	eb 1a                	jmp    1a69 <strings_not_equal+0x7b>
    1a4f:	48 83 45 f0 01       	addq   $0x1,-0x10(%rbp)
    1a54:	48 83 45 e8 01       	addq   $0x1,-0x18(%rbp)
    1a59:	48 8b 45 f0          	mov    -0x10(%rbp),%rax
    1a5d:	0f b6 00             	movzbl (%rax),%eax
    1a60:	84 c0                	test   %al,%al
    1a62:	75 d2                	jne    1a36 <strings_not_equal+0x48>
    1a64:	b8 00 00 00 00       	mov    $0x0,%eax
    1a69:	48 83 c4 20          	add    $0x20,%rsp
    1a6d:	5b                   	pop    %rbx
    1a6e:	5d                   	pop    %rbp
    1a6f:	c3                   	retq   

0000000000001a70 <initialize_bomb>:
    1a70:	55                   	push   %rbp
    1a71:	48 89 e5             	mov    %rsp,%rbp
    1a74:	48 8d 35 47 fe ff ff 	lea    -0x1b9(%rip),%rsi        # 18c2 <sig_handler>
    1a7b:	bf 02 00 00 00       	mov    $0x2,%edi
    1a80:	e8 2b f5 ff ff       	callq  fb0 <signal@plt>
    1a85:	90                   	nop
    1a86:	5d                   	pop    %rbp
    1a87:	c3                   	retq   

0000000000001a88 <initialize_bomb_solve>:
    1a88:	55                   	push   %rbp
    1a89:	48 89 e5             	mov    %rsp,%rbp
    1a8c:	90                   	nop
    1a8d:	5d                   	pop    %rbp
    1a8e:	c3                   	retq   

0000000000001a8f <blank_line>:
    1a8f:	55                   	push   %rbp
    1a90:	48 89 e5             	mov    %rsp,%rbp
    1a93:	48 83 ec 10          	sub    $0x10,%rsp
    1a97:	48 89 7d f8          	mov    %rdi,-0x8(%rbp)
    1a9b:	eb 37                	jmp    1ad4 <blank_line+0x45>
    1a9d:	e8 ee f5 ff ff       	callq  1090 <__ctype_b_loc@plt>
    1aa2:	48 8b 08             	mov    (%rax),%rcx
    1aa5:	48 8b 45 f8          	mov    -0x8(%rbp),%rax
    1aa9:	48 8d 50 01          	lea    0x1(%rax),%rdx
    1aad:	48 89 55 f8          	mov    %rdx,-0x8(%rbp)
    1ab1:	0f b6 00             	movzbl (%rax),%eax
    1ab4:	48 0f be c0          	movsbq %al,%rax
    1ab8:	48 01 c0             	add    %rax,%rax
    1abb:	48 01 c8             	add    %rcx,%rax
    1abe:	0f b7 00             	movzwl (%rax),%eax
    1ac1:	0f b7 c0             	movzwl %ax,%eax
    1ac4:	25 00 20 00 00       	and    $0x2000,%eax
    1ac9:	85 c0                	test   %eax,%eax
    1acb:	75 07                	jne    1ad4 <blank_line+0x45>
    1acd:	b8 00 00 00 00       	mov    $0x0,%eax
    1ad2:	eb 10                	jmp    1ae4 <blank_line+0x55>
    1ad4:	48 8b 45 f8          	mov    -0x8(%rbp),%rax
    1ad8:	0f b6 00             	movzbl (%rax),%eax
    1adb:	84 c0                	test   %al,%al
    1add:	75 be                	jne    1a9d <blank_line+0xe>
    1adf:	b8 01 00 00 00       	mov    $0x1,%eax
    1ae4:	c9                   	leaveq 
    1ae5:	c3                   	retq   

0000000000001ae6 <skip>:
    1ae6:	55                   	push   %rbp
    1ae7:	48 89 e5             	mov    %rsp,%rbp
    1aea:	48 83 ec 10          	sub    $0x10,%rsp
    1aee:	48 8b 0d fb 2c 20 00 	mov    0x202cfb(%rip),%rcx        # 2047f0 <infile>
    1af5:	8b 05 f1 2c 20 00    	mov    0x202cf1(%rip),%eax        # 2047ec <num_input_strings>
    1afb:	48 63 d0             	movslq %eax,%rdx
    1afe:	48 89 d0             	mov    %rdx,%rax
    1b01:	48 c1 e0 02          	shl    $0x2,%rax
    1b05:	48 01 d0             	add    %rdx,%rax
    1b08:	48 c1 e0 04          	shl    $0x4,%rax
    1b0c:	48 8d 15 ed 2c 20 00 	lea    0x202ced(%rip),%rdx        # 204800 <input_strings>
    1b13:	48 01 d0             	add    %rdx,%rax
    1b16:	48 89 ca             	mov    %rcx,%rdx
    1b19:	be 50 00 00 00       	mov    $0x50,%esi
    1b1e:	48 89 c7             	mov    %rax,%rdi
    1b21:	e8 6a f4 ff ff       	callq  f90 <fgets@plt>
    1b26:	48 89 45 f8          	mov    %rax,-0x8(%rbp)
    1b2a:	48 83 7d f8 00       	cmpq   $0x0,-0x8(%rbp)
    1b2f:	74 10                	je     1b41 <skip+0x5b>
    1b31:	48 8b 45 f8          	mov    -0x8(%rbp),%rax
    1b35:	48 89 c7             	mov    %rax,%rdi
    1b38:	e8 52 ff ff ff       	callq  1a8f <blank_line>
    1b3d:	85 c0                	test   %eax,%eax
    1b3f:	75 ad                	jne    1aee <skip+0x8>
    1b41:	48 8b 45 f8          	mov    -0x8(%rbp),%rax
    1b45:	c9                   	leaveq 
    1b46:	c3                   	retq   

0000000000001b47 <read_line>:
    1b47:	55                   	push   %rbp
    1b48:	48 89 e5             	mov    %rsp,%rbp
    1b4b:	48 83 ec 10          	sub    $0x10,%rsp
    1b4f:	b8 00 00 00 00       	mov    $0x0,%eax
    1b54:	e8 8d ff ff ff       	callq  1ae6 <skip>
    1b59:	48 89 45 f8          	mov    %rax,-0x8(%rbp)
    1b5d:	48 83 7d f8 00       	cmpq   $0x0,-0x8(%rbp)
    1b62:	75 7d                	jne    1be1 <read_line+0x9a>
    1b64:	48 8b 15 85 2c 20 00 	mov    0x202c85(%rip),%rdx        # 2047f0 <infile>
    1b6b:	48 8b 05 5e 2c 20 00 	mov    0x202c5e(%rip),%rax        # 2047d0 <stdin@@GLIBC_2.2.5>
    1b72:	48 39 c2             	cmp    %rax,%rdx
    1b75:	75 16                	jne    1b8d <read_line+0x46>
    1b77:	48 8d 3d 2d 13 00 00 	lea    0x132d(%rip),%rdi        # 2eab <_IO_stdin_used+0x29b>
    1b7e:	e8 8d f3 ff ff       	callq  f10 <puts@plt>
    1b83:	bf 08 00 00 00       	mov    $0x8,%edi
    1b88:	e8 d3 f4 ff ff       	callq  1060 <exit@plt>
    1b8d:	48 8d 3d 35 13 00 00 	lea    0x1335(%rip),%rdi        # 2ec9 <_IO_stdin_used+0x2b9>
    1b94:	e8 47 f3 ff ff       	callq  ee0 <getenv@plt>
    1b99:	48 85 c0             	test   %rax,%rax
    1b9c:	74 0a                	je     1ba8 <read_line+0x61>
    1b9e:	bf 00 00 00 00       	mov    $0x0,%edi
    1ba3:	e8 b8 f4 ff ff       	callq  1060 <exit@plt>
    1ba8:	48 8b 05 21 2c 20 00 	mov    0x202c21(%rip),%rax        # 2047d0 <stdin@@GLIBC_2.2.5>
    1baf:	48 89 05 3a 2c 20 00 	mov    %rax,0x202c3a(%rip)        # 2047f0 <infile>
    1bb6:	b8 00 00 00 00       	mov    $0x0,%eax
    1bbb:	e8 26 ff ff ff       	callq  1ae6 <skip>
    1bc0:	48 89 45 f8          	mov    %rax,-0x8(%rbp)
    1bc4:	48 83 7d f8 00       	cmpq   $0x0,-0x8(%rbp)
    1bc9:	75 16                	jne    1be1 <read_line+0x9a>
    1bcb:	48 8d 3d d9 12 00 00 	lea    0x12d9(%rip),%rdi        # 2eab <_IO_stdin_used+0x29b>
    1bd2:	e8 39 f3 ff ff       	callq  f10 <puts@plt>
    1bd7:	bf 00 00 00 00       	mov    $0x0,%edi
    1bdc:	e8 7f f4 ff ff       	callq  1060 <exit@plt>
    1be1:	8b 05 05 2c 20 00    	mov    0x202c05(%rip),%eax        # 2047ec <num_input_strings>
    1be7:	48 63 d0             	movslq %eax,%rdx
    1bea:	48 89 d0             	mov    %rdx,%rax
    1bed:	48 c1 e0 02          	shl    $0x2,%rax
    1bf1:	48 01 d0             	add    %rdx,%rax
    1bf4:	48 c1 e0 04          	shl    $0x4,%rax
    1bf8:	48 8d 15 01 2c 20 00 	lea    0x202c01(%rip),%rdx        # 204800 <input_strings>
    1bff:	48 01 d0             	add    %rdx,%rax
    1c02:	48 89 c7             	mov    %rax,%rdi
    1c05:	e8 26 f3 ff ff       	callq  f30 <strlen@plt>
    1c0a:	89 45 f4             	mov    %eax,-0xc(%rbp)
    1c0d:	83 7d f4 4e          	cmpl   $0x4e,-0xc(%rbp)
    1c11:	7e 56                	jle    1c69 <read_line+0x122>
    1c13:	48 8d 3d ba 12 00 00 	lea    0x12ba(%rip),%rdi        # 2ed4 <_IO_stdin_used+0x2c4>
    1c1a:	e8 f1 f2 ff ff       	callq  f10 <puts@plt>
    1c1f:	8b 05 c7 2b 20 00    	mov    0x202bc7(%rip),%eax        # 2047ec <num_input_strings>
    1c25:	8d 50 01             	lea    0x1(%rax),%edx
    1c28:	89 15 be 2b 20 00    	mov    %edx,0x202bbe(%rip)        # 2047ec <num_input_strings>
    1c2e:	48 63 d0             	movslq %eax,%rdx
    1c31:	48 89 d0             	mov    %rdx,%rax
    1c34:	48 c1 e0 02          	shl    $0x2,%rax
    1c38:	48 01 d0             	add    %rdx,%rax
    1c3b:	48 c1 e0 04          	shl    $0x4,%rax
    1c3f:	48 8d 15 ba 2b 20 00 	lea    0x202bba(%rip),%rdx        # 204800 <input_strings>
    1c46:	48 01 d0             	add    %rdx,%rax
    1c49:	48 be 2a 2a 2a 74 72 	movabs $0x636e7572742a2a2a,%rsi
    1c50:	75 6e 63 
    1c53:	48 89 30             	mov    %rsi,(%rax)
    1c56:	48 b9 61 74 65 64 2a 	movabs $0x2a2a2a64657461,%rcx
    1c5d:	2a 2a 00 
    1c60:	48 89 48 08          	mov    %rcx,0x8(%rax)
    1c64:	e8 5d 00 00 00       	callq  1cc6 <explode_bomb>
    1c69:	8b 05 7d 2b 20 00    	mov    0x202b7d(%rip),%eax        # 2047ec <num_input_strings>
    1c6f:	8b 55 f4             	mov    -0xc(%rbp),%edx
    1c72:	83 ea 01             	sub    $0x1,%edx
    1c75:	48 63 ca             	movslq %edx,%rcx
    1c78:	48 63 d0             	movslq %eax,%rdx
    1c7b:	48 89 d0             	mov    %rdx,%rax
    1c7e:	48 c1 e0 02          	shl    $0x2,%rax
    1c82:	48 01 d0             	add    %rdx,%rax
    1c85:	48 c1 e0 04          	shl    $0x4,%rax
    1c89:	48 8d 14 08          	lea    (%rax,%rcx,1),%rdx
    1c8d:	48 8d 05 6c 2b 20 00 	lea    0x202b6c(%rip),%rax        # 204800 <input_strings>
    1c94:	48 01 d0             	add    %rdx,%rax
    1c97:	c6 00 00             	movb   $0x0,(%rax)
    1c9a:	8b 05 4c 2b 20 00    	mov    0x202b4c(%rip),%eax        # 2047ec <num_input_strings>
    1ca0:	8d 50 01             	lea    0x1(%rax),%edx
    1ca3:	89 15 43 2b 20 00    	mov    %edx,0x202b43(%rip)        # 2047ec <num_input_strings>
    1ca9:	48 63 d0             	movslq %eax,%rdx
    1cac:	48 89 d0             	mov    %rdx,%rax
    1caf:	48 c1 e0 02          	shl    $0x2,%rax
    1cb3:	48 01 d0             	add    %rdx,%rax
    1cb6:	48 c1 e0 04          	shl    $0x4,%rax
    1cba:	48 8d 15 3f 2b 20 00 	lea    0x202b3f(%rip),%rdx        # 204800 <input_strings>
    1cc1:	48 01 d0             	add    %rdx,%rax
    1cc4:	c9                   	leaveq 
    1cc5:	c3                   	retq   

0000000000001cc6 <explode_bomb>:
    1cc6:	55                   	push   %rbp
    1cc7:	48 89 e5             	mov    %rsp,%rbp
    1cca:	48 8d 3d 1e 12 00 00 	lea    0x121e(%rip),%rdi        # 2eef <_IO_stdin_used+0x2df>
    1cd1:	e8 3a f2 ff ff       	callq  f10 <puts@plt>
    1cd6:	48 8d 3d 1b 12 00 00 	lea    0x121b(%rip),%rdi        # 2ef8 <_IO_stdin_used+0x2e8>
    1cdd:	e8 2e f2 ff ff       	callq  f10 <puts@plt>
    1ce2:	bf 08 00 00 00       	mov    $0x8,%edi
    1ce7:	e8 74 f3 ff ff       	callq  1060 <exit@plt>

0000000000001cec <phase_defused>:
    1cec:	55                   	push   %rbp
    1ced:	48 89 e5             	mov    %rsp,%rbp
    1cf0:	48 83 ec 70          	sub    $0x70,%rsp
    1cf4:	8b 05 f2 2a 20 00    	mov    0x202af2(%rip),%eax        # 2047ec <num_input_strings>
    1cfa:	83 f8 06             	cmp    $0x6,%eax
    1cfd:	75 7b                	jne    1d7a <phase_defused+0x8e>
    1cff:	48 8d 4d a0          	lea    -0x60(%rbp),%rcx
    1d03:	48 8d 55 98          	lea    -0x68(%rbp),%rdx
    1d07:	48 8d 45 9c          	lea    -0x64(%rbp),%rax
    1d0b:	49 89 c8             	mov    %rcx,%r8
    1d0e:	48 89 d1             	mov    %rdx,%rcx
    1d11:	48 89 c2             	mov    %rax,%rdx
    1d14:	48 8d 35 f4 11 00 00 	lea    0x11f4(%rip),%rsi        # 2f0f <_IO_stdin_used+0x2ff>
    1d1b:	48 8d 3d ce 2b 20 00 	lea    0x202bce(%rip),%rdi        # 2048f0 <input_strings+0xf0>
    1d22:	b8 00 00 00 00       	mov    $0x0,%eax
    1d27:	e8 d4 f2 ff ff       	callq  1000 <__isoc99_sscanf@plt>
    1d2c:	89 45 fc             	mov    %eax,-0x4(%rbp)
    1d2f:	83 7d fc 03          	cmpl   $0x3,-0x4(%rbp)
    1d33:	75 39                	jne    1d6e <phase_defused+0x82>
    1d35:	48 8d 45 a0          	lea    -0x60(%rbp),%rax
    1d39:	48 8d 35 d8 11 00 00 	lea    0x11d8(%rip),%rsi        # 2f18 <_IO_stdin_used+0x308>
    1d40:	48 89 c7             	mov    %rax,%rdi
    1d43:	e8 a6 fc ff ff       	callq  19ee <strings_not_equal>
    1d48:	85 c0                	test   %eax,%eax
    1d4a:	75 22                	jne    1d6e <phase_defused+0x82>
    1d4c:	48 8d 3d cd 11 00 00 	lea    0x11cd(%rip),%rdi        # 2f20 <_IO_stdin_used+0x310>
    1d53:	e8 b8 f1 ff ff       	callq  f10 <puts@plt>
    1d58:	48 8d 3d e9 11 00 00 	lea    0x11e9(%rip),%rdi        # 2f48 <_IO_stdin_used+0x338>
    1d5f:	e8 ac f1 ff ff       	callq  f10 <puts@plt>
    1d64:	b8 00 00 00 00       	mov    $0x0,%eax
    1d69:	e8 ed fa ff ff       	callq  185b <secret_phase>
    1d6e:	48 8d 3d 0b 12 00 00 	lea    0x120b(%rip),%rdi        # 2f80 <_IO_stdin_used+0x370>
    1d75:	e8 96 f1 ff ff       	callq  f10 <puts@plt>
    1d7a:	90                   	nop
    1d7b:	c9                   	leaveq 
    1d7c:	c3                   	retq   

0000000000001d7d <sigalrm_handler>:
    1d7d:	55                   	push   %rbp
    1d7e:	48 89 e5             	mov    %rsp,%rbp
    1d81:	48 83 ec 10          	sub    $0x10,%rsp
    1d85:	89 7d fc             	mov    %edi,-0x4(%rbp)
    1d88:	48 8b 05 51 2a 20 00 	mov    0x202a51(%rip),%rax        # 2047e0 <stderr@@GLIBC_2.2.5>
    1d8f:	ba 00 00 00 00       	mov    $0x0,%edx
    1d94:	48 8d 35 15 12 00 00 	lea    0x1215(%rip),%rsi        # 2fb0 <_IO_stdin_used+0x3a0>
    1d9b:	48 89 c7             	mov    %rax,%rdi
    1d9e:	b8 00 00 00 00       	mov    $0x0,%eax
    1da3:	e8 28 f2 ff ff       	callq  fd0 <fprintf@plt>
    1da8:	bf 01 00 00 00       	mov    $0x1,%edi
    1dad:	e8 ae f2 ff ff       	callq  1060 <exit@plt>

0000000000001db2 <rio_readinitb>:
    1db2:	55                   	push   %rbp
    1db3:	48 89 e5             	mov    %rsp,%rbp
    1db6:	48 89 7d f8          	mov    %rdi,-0x8(%rbp)
    1dba:	89 75 f4             	mov    %esi,-0xc(%rbp)
    1dbd:	48 8b 45 f8          	mov    -0x8(%rbp),%rax
    1dc1:	8b 55 f4             	mov    -0xc(%rbp),%edx
    1dc4:	89 10                	mov    %edx,(%rax)
    1dc6:	48 8b 45 f8          	mov    -0x8(%rbp),%rax
    1dca:	c7 40 04 00 00 00 00 	movl   $0x0,0x4(%rax)
    1dd1:	48 8b 45 f8          	mov    -0x8(%rbp),%rax
    1dd5:	48 8d 50 10          	lea    0x10(%rax),%rdx
    1dd9:	48 8b 45 f8          	mov    -0x8(%rbp),%rax
    1ddd:	48 89 50 08          	mov    %rdx,0x8(%rax)
    1de1:	90                   	nop
    1de2:	5d                   	pop    %rbp
    1de3:	c3                   	retq   

0000000000001de4 <rio_read>:
    1de4:	55                   	push   %rbp
    1de5:	48 89 e5             	mov    %rsp,%rbp
    1de8:	48 83 ec 30          	sub    $0x30,%rsp
    1dec:	48 89 7d e8          	mov    %rdi,-0x18(%rbp)
    1df0:	48 89 75 e0          	mov    %rsi,-0x20(%rbp)
    1df4:	48 89 55 d8          	mov    %rdx,-0x28(%rbp)
    1df8:	eb 6e                	jmp    1e68 <rio_read+0x84>
    1dfa:	48 8b 45 e8          	mov    -0x18(%rbp),%rax
    1dfe:	48 8d 48 10          	lea    0x10(%rax),%rcx
    1e02:	48 8b 45 e8          	mov    -0x18(%rbp),%rax
    1e06:	8b 00                	mov    (%rax),%eax
    1e08:	ba 00 20 00 00       	mov    $0x2000,%edx
    1e0d:	48 89 ce             	mov    %rcx,%rsi
    1e10:	89 c7                	mov    %eax,%edi
    1e12:	e8 69 f1 ff ff       	callq  f80 <read@plt>
    1e17:	89 c2                	mov    %eax,%edx
    1e19:	48 8b 45 e8          	mov    -0x18(%rbp),%rax
    1e1d:	89 50 04             	mov    %edx,0x4(%rax)
    1e20:	48 8b 45 e8          	mov    -0x18(%rbp),%rax
    1e24:	8b 40 04             	mov    0x4(%rax),%eax
    1e27:	85 c0                	test   %eax,%eax
    1e29:	79 18                	jns    1e43 <rio_read+0x5f>
    1e2b:	e8 c0 f0 ff ff       	callq  ef0 <__errno_location@plt>
    1e30:	8b 00                	mov    (%rax),%eax
    1e32:	83 f8 04             	cmp    $0x4,%eax
    1e35:	74 31                	je     1e68 <rio_read+0x84>
    1e37:	48 c7 c0 ff ff ff ff 	mov    $0xffffffffffffffff,%rax
    1e3e:	e9 9d 00 00 00       	jmpq   1ee0 <rio_read+0xfc>
    1e43:	48 8b 45 e8          	mov    -0x18(%rbp),%rax
    1e47:	8b 40 04             	mov    0x4(%rax),%eax
    1e4a:	85 c0                	test   %eax,%eax
    1e4c:	75 0a                	jne    1e58 <rio_read+0x74>
    1e4e:	b8 00 00 00 00       	mov    $0x0,%eax
    1e53:	e9 88 00 00 00       	jmpq   1ee0 <rio_read+0xfc>
    1e58:	48 8b 45 e8          	mov    -0x18(%rbp),%rax
    1e5c:	48 8d 50 10          	lea    0x10(%rax),%rdx
    1e60:	48 8b 45 e8          	mov    -0x18(%rbp),%rax
    1e64:	48 89 50 08          	mov    %rdx,0x8(%rax)
    1e68:	48 8b 45 e8          	mov    -0x18(%rbp),%rax
    1e6c:	8b 40 04             	mov    0x4(%rax),%eax
    1e6f:	85 c0                	test   %eax,%eax
    1e71:	7e 87                	jle    1dfa <rio_read+0x16>
    1e73:	48 8b 45 d8          	mov    -0x28(%rbp),%rax
    1e77:	89 45 fc             	mov    %eax,-0x4(%rbp)
    1e7a:	48 8b 45 e8          	mov    -0x18(%rbp),%rax
    1e7e:	8b 40 04             	mov    0x4(%rax),%eax
    1e81:	48 98                	cltq   
    1e83:	48 3b 45 d8          	cmp    -0x28(%rbp),%rax
    1e87:	73 0a                	jae    1e93 <rio_read+0xaf>
    1e89:	48 8b 45 e8          	mov    -0x18(%rbp),%rax
    1e8d:	8b 40 04             	mov    0x4(%rax),%eax
    1e90:	89 45 fc             	mov    %eax,-0x4(%rbp)
    1e93:	8b 45 fc             	mov    -0x4(%rbp),%eax
    1e96:	48 63 d0             	movslq %eax,%rdx
    1e99:	48 8b 45 e8          	mov    -0x18(%rbp),%rax
    1e9d:	48 8b 48 08          	mov    0x8(%rax),%rcx
    1ea1:	48 8b 45 e0          	mov    -0x20(%rbp),%rax
    1ea5:	48 89 ce             	mov    %rcx,%rsi
    1ea8:	48 89 c7             	mov    %rax,%rdi
    1eab:	e8 30 f1 ff ff       	callq  fe0 <memcpy@plt>
    1eb0:	48 8b 45 e8          	mov    -0x18(%rbp),%rax
    1eb4:	48 8b 50 08          	mov    0x8(%rax),%rdx
    1eb8:	8b 45 fc             	mov    -0x4(%rbp),%eax
    1ebb:	48 98                	cltq   
    1ebd:	48 01 c2             	add    %rax,%rdx
    1ec0:	48 8b 45 e8          	mov    -0x18(%rbp),%rax
    1ec4:	48 89 50 08          	mov    %rdx,0x8(%rax)
    1ec8:	48 8b 45 e8          	mov    -0x18(%rbp),%rax
    1ecc:	8b 40 04             	mov    0x4(%rax),%eax
    1ecf:	2b 45 fc             	sub    -0x4(%rbp),%eax
    1ed2:	89 c2                	mov    %eax,%edx
    1ed4:	48 8b 45 e8          	mov    -0x18(%rbp),%rax
    1ed8:	89 50 04             	mov    %edx,0x4(%rax)
    1edb:	8b 45 fc             	mov    -0x4(%rbp),%eax
    1ede:	48 98                	cltq   
    1ee0:	c9                   	leaveq 
    1ee1:	c3                   	retq   

0000000000001ee2 <rio_readlineb>:
    1ee2:	55                   	push   %rbp
    1ee3:	48 89 e5             	mov    %rsp,%rbp
    1ee6:	48 83 ec 40          	sub    $0x40,%rsp
    1eea:	48 89 7d d8          	mov    %rdi,-0x28(%rbp)
    1eee:	48 89 75 d0          	mov    %rsi,-0x30(%rbp)
    1ef2:	48 89 55 c8          	mov    %rdx,-0x38(%rbp)
    1ef6:	48 8b 45 d0          	mov    -0x30(%rbp),%rax
    1efa:	48 89 45 f0          	mov    %rax,-0x10(%rbp)
    1efe:	c7 45 fc 01 00 00 00 	movl   $0x1,-0x4(%rbp)
    1f05:	eb 5d                	jmp    1f64 <rio_readlineb+0x82>
    1f07:	48 8d 4d eb          	lea    -0x15(%rbp),%rcx
    1f0b:	48 8b 45 d8          	mov    -0x28(%rbp),%rax
    1f0f:	ba 01 00 00 00       	mov    $0x1,%edx
    1f14:	48 89 ce             	mov    %rcx,%rsi
    1f17:	48 89 c7             	mov    %rax,%rdi
    1f1a:	e8 c5 fe ff ff       	callq  1de4 <rio_read>
    1f1f:	89 45 ec             	mov    %eax,-0x14(%rbp)
    1f22:	83 7d ec 01          	cmpl   $0x1,-0x14(%rbp)
    1f26:	75 1c                	jne    1f44 <rio_readlineb+0x62>
    1f28:	48 8b 45 f0          	mov    -0x10(%rbp),%rax
    1f2c:	48 8d 50 01          	lea    0x1(%rax),%rdx
    1f30:	48 89 55 f0          	mov    %rdx,-0x10(%rbp)
    1f34:	0f b6 55 eb          	movzbl -0x15(%rbp),%edx
    1f38:	88 10                	mov    %dl,(%rax)
    1f3a:	0f b6 45 eb          	movzbl -0x15(%rbp),%eax
    1f3e:	3c 0a                	cmp    $0xa,%al
    1f40:	75 1e                	jne    1f60 <rio_readlineb+0x7e>
    1f42:	eb 2e                	jmp    1f72 <rio_readlineb+0x90>
    1f44:	83 7d ec 00          	cmpl   $0x0,-0x14(%rbp)
    1f48:	75 0d                	jne    1f57 <rio_readlineb+0x75>
    1f4a:	83 7d fc 01          	cmpl   $0x1,-0x4(%rbp)
    1f4e:	75 21                	jne    1f71 <rio_readlineb+0x8f>
    1f50:	b8 00 00 00 00       	mov    $0x0,%eax
    1f55:	eb 27                	jmp    1f7e <rio_readlineb+0x9c>
    1f57:	48 c7 c0 ff ff ff ff 	mov    $0xffffffffffffffff,%rax
    1f5e:	eb 1e                	jmp    1f7e <rio_readlineb+0x9c>
    1f60:	83 45 fc 01          	addl   $0x1,-0x4(%rbp)
    1f64:	8b 45 fc             	mov    -0x4(%rbp),%eax
    1f67:	48 98                	cltq   
    1f69:	48 3b 45 c8          	cmp    -0x38(%rbp),%rax
    1f6d:	72 98                	jb     1f07 <rio_readlineb+0x25>
    1f6f:	eb 01                	jmp    1f72 <rio_readlineb+0x90>
    1f71:	90                   	nop
    1f72:	48 8b 45 f0          	mov    -0x10(%rbp),%rax
    1f76:	c6 00 00             	movb   $0x0,(%rax)
    1f79:	8b 45 fc             	mov    -0x4(%rbp),%eax
    1f7c:	48 98                	cltq   
    1f7e:	c9                   	leaveq 
    1f7f:	c3                   	retq   

0000000000001f80 <rio_writen>:
    1f80:	55                   	push   %rbp
    1f81:	48 89 e5             	mov    %rsp,%rbp
    1f84:	48 83 ec 40          	sub    $0x40,%rsp
    1f88:	89 7d dc             	mov    %edi,-0x24(%rbp)
    1f8b:	48 89 75 d0          	mov    %rsi,-0x30(%rbp)
    1f8f:	48 89 55 c8          	mov    %rdx,-0x38(%rbp)
    1f93:	48 8b 45 c8          	mov    -0x38(%rbp),%rax
    1f97:	48 89 45 f8          	mov    %rax,-0x8(%rbp)
    1f9b:	48 8b 45 d0          	mov    -0x30(%rbp),%rax
    1f9f:	48 89 45 e8          	mov    %rax,-0x18(%rbp)
    1fa3:	eb 4f                	jmp    1ff4 <rio_writen+0x74>
    1fa5:	48 8b 55 f8          	mov    -0x8(%rbp),%rdx
    1fa9:	48 8b 4d e8          	mov    -0x18(%rbp),%rcx
    1fad:	8b 45 dc             	mov    -0x24(%rbp),%eax
    1fb0:	48 89 ce             	mov    %rcx,%rsi
    1fb3:	89 c7                	mov    %eax,%edi
    1fb5:	e8 66 ef ff ff       	callq  f20 <write@plt>
    1fba:	48 89 45 f0          	mov    %rax,-0x10(%rbp)
    1fbe:	48 83 7d f0 00       	cmpq   $0x0,-0x10(%rbp)
    1fc3:	7f 1f                	jg     1fe4 <rio_writen+0x64>
    1fc5:	e8 26 ef ff ff       	callq  ef0 <__errno_location@plt>
    1fca:	8b 00                	mov    (%rax),%eax
    1fcc:	83 f8 04             	cmp    $0x4,%eax
    1fcf:	75 0a                	jne    1fdb <rio_writen+0x5b>
    1fd1:	48 c7 45 f0 00 00 00 	movq   $0x0,-0x10(%rbp)
    1fd8:	00 
    1fd9:	eb 09                	jmp    1fe4 <rio_writen+0x64>
    1fdb:	48 c7 c0 ff ff ff ff 	mov    $0xffffffffffffffff,%rax
    1fe2:	eb 1b                	jmp    1fff <rio_writen+0x7f>
    1fe4:	48 8b 45 f0          	mov    -0x10(%rbp),%rax
    1fe8:	48 29 45 f8          	sub    %rax,-0x8(%rbp)
    1fec:	48 8b 45 f0          	mov    -0x10(%rbp),%rax
    1ff0:	48 01 45 e8          	add    %rax,-0x18(%rbp)
    1ff4:	48 83 7d f8 00       	cmpq   $0x0,-0x8(%rbp)
    1ff9:	75 aa                	jne    1fa5 <rio_writen+0x25>
    1ffb:	48 8b 45 c8          	mov    -0x38(%rbp),%rax
    1fff:	c9                   	leaveq 
    2000:	c3                   	retq   

0000000000002001 <urlencode>:
    2001:	55                   	push   %rbp
    2002:	48 89 e5             	mov    %rsp,%rbp
    2005:	48 83 ec 20          	sub    $0x20,%rsp
    2009:	48 89 7d e8          	mov    %rdi,-0x18(%rbp)
    200d:	48 89 75 e0          	mov    %rsi,-0x20(%rbp)
    2011:	48 8b 45 e8          	mov    -0x18(%rbp),%rax
    2015:	48 89 c7             	mov    %rax,%rdi
    2018:	e8 13 ef ff ff       	callq  f30 <strlen@plt>
    201d:	89 45 fc             	mov    %eax,-0x4(%rbp)
    2020:	e9 2e 01 00 00       	jmpq   2153 <urlencode+0x152>
    2025:	48 8b 45 e8          	mov    -0x18(%rbp),%rax
    2029:	0f b6 00             	movzbl (%rax),%eax
    202c:	3c 2a                	cmp    $0x2a,%al
    202e:	74 63                	je     2093 <urlencode+0x92>
    2030:	48 8b 45 e8          	mov    -0x18(%rbp),%rax
    2034:	0f b6 00             	movzbl (%rax),%eax
    2037:	3c 2d                	cmp    $0x2d,%al
    2039:	74 58                	je     2093 <urlencode+0x92>
    203b:	48 8b 45 e8          	mov    -0x18(%rbp),%rax
    203f:	0f b6 00             	movzbl (%rax),%eax
    2042:	3c 2e                	cmp    $0x2e,%al
    2044:	74 4d                	je     2093 <urlencode+0x92>
    2046:	48 8b 45 e8          	mov    -0x18(%rbp),%rax
    204a:	0f b6 00             	movzbl (%rax),%eax
    204d:	3c 5f                	cmp    $0x5f,%al
    204f:	74 42                	je     2093 <urlencode+0x92>
    2051:	48 8b 45 e8          	mov    -0x18(%rbp),%rax
    2055:	0f b6 00             	movzbl (%rax),%eax
    2058:	3c 2f                	cmp    $0x2f,%al
    205a:	76 0b                	jbe    2067 <urlencode+0x66>
    205c:	48 8b 45 e8          	mov    -0x18(%rbp),%rax
    2060:	0f b6 00             	movzbl (%rax),%eax
    2063:	3c 39                	cmp    $0x39,%al
    2065:	76 2c                	jbe    2093 <urlencode+0x92>
    2067:	48 8b 45 e8          	mov    -0x18(%rbp),%rax
    206b:	0f b6 00             	movzbl (%rax),%eax
    206e:	3c 40                	cmp    $0x40,%al
    2070:	76 0b                	jbe    207d <urlencode+0x7c>
    2072:	48 8b 45 e8          	mov    -0x18(%rbp),%rax
    2076:	0f b6 00             	movzbl (%rax),%eax
    2079:	3c 5a                	cmp    $0x5a,%al
    207b:	76 16                	jbe    2093 <urlencode+0x92>
    207d:	48 8b 45 e8          	mov    -0x18(%rbp),%rax
    2081:	0f b6 00             	movzbl (%rax),%eax
    2084:	3c 60                	cmp    $0x60,%al
    2086:	76 25                	jbe    20ad <urlencode+0xac>
    2088:	48 8b 45 e8          	mov    -0x18(%rbp),%rax
    208c:	0f b6 00             	movzbl (%rax),%eax
    208f:	3c 7a                	cmp    $0x7a,%al
    2091:	77 1a                	ja     20ad <urlencode+0xac>
    2093:	48 8b 45 e0          	mov    -0x20(%rbp),%rax
    2097:	48 8d 50 01          	lea    0x1(%rax),%rdx
    209b:	48 89 55 e0          	mov    %rdx,-0x20(%rbp)
    209f:	48 8b 55 e8          	mov    -0x18(%rbp),%rdx
    20a3:	0f b6 12             	movzbl (%rdx),%edx
    20a6:	88 10                	mov    %dl,(%rax)
    20a8:	e9 a1 00 00 00       	jmpq   214e <urlencode+0x14d>
    20ad:	48 8b 45 e8          	mov    -0x18(%rbp),%rax
    20b1:	0f b6 00             	movzbl (%rax),%eax
    20b4:	3c 20                	cmp    $0x20,%al
    20b6:	75 14                	jne    20cc <urlencode+0xcb>
    20b8:	48 8b 45 e0          	mov    -0x20(%rbp),%rax
    20bc:	48 8d 50 01          	lea    0x1(%rax),%rdx
    20c0:	48 89 55 e0          	mov    %rdx,-0x20(%rbp)
    20c4:	c6 00 2b             	movb   $0x2b,(%rax)
    20c7:	e9 82 00 00 00       	jmpq   214e <urlencode+0x14d>
    20cc:	48 8b 45 e8          	mov    -0x18(%rbp),%rax
    20d0:	0f b6 00             	movzbl (%rax),%eax
    20d3:	3c 1f                	cmp    $0x1f,%al
    20d5:	76 0b                	jbe    20e2 <urlencode+0xe1>
    20d7:	48 8b 45 e8          	mov    -0x18(%rbp),%rax
    20db:	0f b6 00             	movzbl (%rax),%eax
    20de:	84 c0                	test   %al,%al
    20e0:	79 0b                	jns    20ed <urlencode+0xec>
    20e2:	48 8b 45 e8          	mov    -0x18(%rbp),%rax
    20e6:	0f b6 00             	movzbl (%rax),%eax
    20e9:	3c 09                	cmp    $0x9,%al
    20eb:	75 5a                	jne    2147 <urlencode+0x146>
    20ed:	48 8b 45 e8          	mov    -0x18(%rbp),%rax
    20f1:	0f b6 00             	movzbl (%rax),%eax
    20f4:	0f b6 d0             	movzbl %al,%edx
    20f7:	48 8d 45 f4          	lea    -0xc(%rbp),%rax
    20fb:	48 8d 35 d2 0e 00 00 	lea    0xed2(%rip),%rsi        # 2fd4 <_IO_stdin_used+0x3c4>
    2102:	48 89 c7             	mov    %rax,%rdi
    2105:	b8 00 00 00 00       	mov    $0x0,%eax
    210a:	e8 41 ef ff ff       	callq  1050 <sprintf@plt>
    210f:	48 8b 45 e0          	mov    -0x20(%rbp),%rax
    2113:	48 8d 50 01          	lea    0x1(%rax),%rdx
    2117:	48 89 55 e0          	mov    %rdx,-0x20(%rbp)
    211b:	0f b6 55 f4          	movzbl -0xc(%rbp),%edx
    211f:	88 10                	mov    %dl,(%rax)
    2121:	48 8b 45 e0          	mov    -0x20(%rbp),%rax
    2125:	48 8d 50 01          	lea    0x1(%rax),%rdx
    2129:	48 89 55 e0          	mov    %rdx,-0x20(%rbp)
    212d:	0f b6 55 f5          	movzbl -0xb(%rbp),%edx
    2131:	88 10                	mov    %dl,(%rax)
    2133:	48 8b 45 e0          	mov    -0x20(%rbp),%rax
    2137:	48 8d 50 01          	lea    0x1(%rax),%rdx
    213b:	48 89 55 e0          	mov    %rdx,-0x20(%rbp)
    213f:	0f b6 55 f6          	movzbl -0xa(%rbp),%edx
    2143:	88 10                	mov    %dl,(%rax)
    2145:	eb 07                	jmp    214e <urlencode+0x14d>
    2147:	b8 ff ff ff ff       	mov    $0xffffffff,%eax
    214c:	eb 1b                	jmp    2169 <urlencode+0x168>
    214e:	48 83 45 e8 01       	addq   $0x1,-0x18(%rbp)
    2153:	8b 45 fc             	mov    -0x4(%rbp),%eax
    2156:	8d 50 ff             	lea    -0x1(%rax),%edx
    2159:	89 55 fc             	mov    %edx,-0x4(%rbp)
    215c:	85 c0                	test   %eax,%eax
    215e:	0f 85 c1 fe ff ff    	jne    2025 <urlencode+0x24>
    2164:	b8 00 00 00 00       	mov    $0x0,%eax
    2169:	c9                   	leaveq 
    216a:	c3                   	retq   

000000000000216b <submitr>:
    216b:	55                   	push   %rbp
    216c:	48 89 e5             	mov    %rsp,%rbp
    216f:	53                   	push   %rbx
    2170:	48 81 ec 88 a0 00 00 	sub    $0xa088,%rsp
    2177:	48 89 bd 98 5f ff ff 	mov    %rdi,-0xa068(%rbp)
    217e:	89 b5 94 5f ff ff    	mov    %esi,-0xa06c(%rbp)
    2184:	48 89 95 88 5f ff ff 	mov    %rdx,-0xa078(%rbp)
    218b:	48 89 8d 80 5f ff ff 	mov    %rcx,-0xa080(%rbp)
    2192:	4c 89 85 78 5f ff ff 	mov    %r8,-0xa088(%rbp)
    2199:	4c 89 8d 70 5f ff ff 	mov    %r9,-0xa090(%rbp)
    21a0:	c7 85 ac 7f ff ff 00 	movl   $0x0,-0x8054(%rbp)
    21a7:	00 00 00 
    21aa:	ba 00 00 00 00       	mov    $0x0,%edx
    21af:	be 01 00 00 00       	mov    $0x1,%esi
    21b4:	bf 02 00 00 00       	mov    $0x2,%edi
    21b9:	e8 e2 ee ff ff       	callq  10a0 <socket@plt>
    21be:	89 45 ec             	mov    %eax,-0x14(%rbp)
    21c1:	83 7d ec 00          	cmpl   $0x0,-0x14(%rbp)
    21c5:	79 52                	jns    2219 <submitr+0xae>
    21c7:	48 8b 45 10          	mov    0x10(%rbp),%rax
    21cb:	48 bb 45 72 72 6f 72 	movabs $0x43203a726f727245,%rbx
    21d2:	3a 20 43 
    21d5:	48 89 18             	mov    %rbx,(%rax)
    21d8:	48 bb 6c 69 65 6e 74 	movabs $0x6e7520746e65696c,%rbx
    21df:	20 75 6e 
    21e2:	48 89 58 08          	mov    %rbx,0x8(%rax)
    21e6:	48 bb 61 62 6c 65 20 	movabs $0x206f7420656c6261,%rbx
    21ed:	74 6f 20 
    21f0:	48 89 58 10          	mov    %rbx,0x10(%rax)
    21f4:	48 bb 63 72 65 61 74 	movabs $0x7320657461657263,%rbx
    21fb:	65 20 73 
    21fe:	48 89 58 18          	mov    %rbx,0x18(%rax)
    2202:	c7 40 20 6f 63 6b 65 	movl   $0x656b636f,0x20(%rax)
    2209:	66 c7 40 24 74 00    	movw   $0x74,0x24(%rax)
    220f:	b8 ff ff ff ff       	mov    $0xffffffff,%eax
    2214:	e9 80 06 00 00       	jmpq   2899 <submitr+0x72e>
    2219:	48 8b 85 98 5f ff ff 	mov    -0xa068(%rbp),%rax
    2220:	48 89 c7             	mov    %rax,%rdi
    2223:	e8 98 ed ff ff       	callq  fc0 <gethostbyname@plt>
    2228:	48 89 45 e0          	mov    %rax,-0x20(%rbp)
    222c:	48 83 7d e0 00       	cmpq   $0x0,-0x20(%rbp)
    2231:	75 6e                	jne    22a1 <submitr+0x136>
    2233:	48 8b 45 10          	mov    0x10(%rbp),%rax
    2237:	48 bb 45 72 72 6f 72 	movabs $0x44203a726f727245,%rbx
    223e:	3a 20 44 
    2241:	48 89 18             	mov    %rbx,(%rax)
    2244:	48 bb 4e 53 20 69 73 	movabs $0x6e7520736920534e,%rbx
    224b:	20 75 6e 
    224e:	48 89 58 08          	mov    %rbx,0x8(%rax)
    2252:	48 bb 61 62 6c 65 20 	movabs $0x206f7420656c6261,%rbx
    2259:	74 6f 20 
    225c:	48 89 58 10          	mov    %rbx,0x10(%rax)
    2260:	48 bb 72 65 73 6f 6c 	movabs $0x2065766c6f736572,%rbx
    2267:	76 65 20 
    226a:	48 89 58 18          	mov    %rbx,0x18(%rax)
    226e:	48 bb 73 65 72 76 65 	movabs $0x6120726576726573,%rbx
    2275:	72 20 61 
    2278:	48 89 58 20          	mov    %rbx,0x20(%rax)
    227c:	c7 40 28 64 64 72 65 	movl   $0x65726464,0x28(%rax)
    2283:	66 c7 40 2c 73 73    	movw   $0x7373,0x2c(%rax)
    2289:	c6 40 2e 00          	movb   $0x0,0x2e(%rax)
    228d:	8b 45 ec             	mov    -0x14(%rbp),%eax
    2290:	89 c7                	mov    %eax,%edi
    2292:	e8 d9 ec ff ff       	callq  f70 <close@plt>
    2297:	b8 ff ff ff ff       	mov    $0xffffffff,%eax
    229c:	e9 f8 05 00 00       	jmpq   2899 <submitr+0x72e>
    22a1:	48 8d 45 c0          	lea    -0x40(%rbp),%rax
    22a5:	be 10 00 00 00       	mov    $0x10,%esi
    22aa:	48 89 c7             	mov    %rax,%rdi
    22ad:	e8 7e ed ff ff       	callq  1030 <bzero@plt>
    22b2:	66 c7 45 c0 02 00    	movw   $0x2,-0x40(%rbp)
    22b8:	48 8b 45 e0          	mov    -0x20(%rbp),%rax
    22bc:	8b 40 14             	mov    0x14(%rax),%eax
    22bf:	48 63 d0             	movslq %eax,%rdx
    22c2:	48 8b 45 e0          	mov    -0x20(%rbp),%rax
    22c6:	48 8b 40 18          	mov    0x18(%rax),%rax
    22ca:	48 8b 00             	mov    (%rax),%rax
    22cd:	48 8d 4d c0          	lea    -0x40(%rbp),%rcx
    22d1:	48 83 c1 04          	add    $0x4,%rcx
    22d5:	48 89 ce             	mov    %rcx,%rsi
    22d8:	48 89 c7             	mov    %rax,%rdi
    22db:	e8 30 ed ff ff       	callq  1010 <bcopy@plt>
    22e0:	8b 85 94 5f ff ff    	mov    -0xa06c(%rbp),%eax
    22e6:	0f b7 c0             	movzwl %ax,%eax
    22e9:	89 c7                	mov    %eax,%edi
    22eb:	e8 50 ec ff ff       	callq  f40 <htons@plt>
    22f0:	66 89 45 c2          	mov    %ax,-0x3e(%rbp)
    22f4:	48 8d 4d c0          	lea    -0x40(%rbp),%rcx
    22f8:	8b 45 ec             	mov    -0x14(%rbp),%eax
    22fb:	ba 10 00 00 00       	mov    $0x10,%edx
    2300:	48 89 ce             	mov    %rcx,%rsi
    2303:	89 c7                	mov    %eax,%edi
    2305:	e8 66 ed ff ff       	callq  1070 <connect@plt>
    230a:	85 c0                	test   %eax,%eax
    230c:	79 60                	jns    236e <submitr+0x203>
    230e:	48 8b 45 10          	mov    0x10(%rbp),%rax
    2312:	48 be 45 72 72 6f 72 	movabs $0x55203a726f727245,%rsi
    2319:	3a 20 55 
    231c:	48 89 30             	mov    %rsi,(%rax)
    231f:	48 bb 6e 61 62 6c 65 	movabs $0x6f7420656c62616e,%rbx
    2326:	20 74 6f 
    2329:	48 89 58 08          	mov    %rbx,0x8(%rax)
    232d:	48 b9 20 63 6f 6e 6e 	movabs $0x7463656e6e6f6320,%rcx
    2334:	65 63 74 
    2337:	48 89 48 10          	mov    %rcx,0x10(%rax)
    233b:	48 be 20 74 6f 20 74 	movabs $0x20656874206f7420,%rsi
    2342:	68 65 20 
    2345:	48 89 70 18          	mov    %rsi,0x18(%rax)
    2349:	c7 40 20 73 65 72 76 	movl   $0x76726573,0x20(%rax)
    2350:	66 c7 40 24 65 72    	movw   $0x7265,0x24(%rax)
    2356:	c6 40 26 00          	movb   $0x0,0x26(%rax)
    235a:	8b 45 ec             	mov    -0x14(%rbp),%eax
    235d:	89 c7                	mov    %eax,%edi
    235f:	e8 0c ec ff ff       	callq  f70 <close@plt>
    2364:	b8 ff ff ff ff       	mov    $0xffffffff,%eax
    2369:	e9 2b 05 00 00       	jmpq   2899 <submitr+0x72e>
    236e:	48 8b 85 70 5f ff ff 	mov    -0xa090(%rbp),%rax
    2375:	48 89 c7             	mov    %rax,%rdi
    2378:	e8 b3 eb ff ff       	callq  f30 <strlen@plt>
    237d:	48 89 45 d8          	mov    %rax,-0x28(%rbp)
    2381:	48 8b 85 88 5f ff ff 	mov    -0xa078(%rbp),%rax
    2388:	48 89 c7             	mov    %rax,%rdi
    238b:	e8 a0 eb ff ff       	callq  f30 <strlen@plt>
    2390:	48 89 c3             	mov    %rax,%rbx
    2393:	48 8b 85 80 5f ff ff 	mov    -0xa080(%rbp),%rax
    239a:	48 89 c7             	mov    %rax,%rdi
    239d:	e8 8e eb ff ff       	callq  f30 <strlen@plt>
    23a2:	48 01 c3             	add    %rax,%rbx
    23a5:	48 8b 85 78 5f ff ff 	mov    -0xa088(%rbp),%rax
    23ac:	48 89 c7             	mov    %rax,%rdi
    23af:	e8 7c eb ff ff       	callq  f30 <strlen@plt>
    23b4:	48 8d 0c 03          	lea    (%rbx,%rax,1),%rcx
    23b8:	48 8b 55 d8          	mov    -0x28(%rbp),%rdx
    23bc:	48 89 d0             	mov    %rdx,%rax
    23bf:	48 01 c0             	add    %rax,%rax
    23c2:	48 01 d0             	add    %rdx,%rax
    23c5:	48 01 c8             	add    %rcx,%rax
    23c8:	48 83 e8 80          	sub    $0xffffffffffffff80,%rax
    23cc:	48 89 45 d0          	mov    %rax,-0x30(%rbp)
    23d0:	48 81 7d d0 00 20 00 	cmpq   $0x2000,-0x30(%rbp)
    23d7:	00 
    23d8:	76 79                	jbe    2453 <submitr+0x2e8>
    23da:	48 8b 45 10          	mov    0x10(%rbp),%rax
    23de:	48 bb 45 72 72 6f 72 	movabs $0x52203a726f727245,%rbx
    23e5:	3a 20 52 
    23e8:	48 89 18             	mov    %rbx,(%rax)
    23eb:	48 b9 65 73 75 6c 74 	movabs $0x747320746c757365,%rcx
    23f2:	20 73 74 
    23f5:	48 89 48 08          	mov    %rcx,0x8(%rax)
    23f9:	48 be 72 69 6e 67 20 	movabs $0x6f6f7420676e6972,%rsi
    2400:	74 6f 6f 
    2403:	48 89 70 10          	mov    %rsi,0x10(%rax)
    2407:	48 bb 20 6c 61 72 67 	movabs $0x202e656772616c20,%rbx
    240e:	65 2e 20 
    2411:	48 89 58 18          	mov    %rbx,0x18(%rax)
    2415:	48 ba 49 6e 63 72 65 	movabs $0x6573616572636e49,%rdx
    241c:	61 73 65 
    241f:	48 89 50 20          	mov    %rdx,0x20(%rax)
    2423:	48 b9 20 53 55 42 4d 	movabs $0x5254494d42555320,%rcx
    242a:	49 54 52 
    242d:	48 89 48 28          	mov    %rcx,0x28(%rax)
    2431:	48 be 5f 4d 41 58 42 	movabs $0x46554258414d5f,%rsi
    2438:	55 46 00 
    243b:	48 89 70 30          	mov    %rsi,0x30(%rax)
    243f:	8b 45 ec             	mov    -0x14(%rbp),%eax
    2442:	89 c7                	mov    %eax,%edi
    2444:	e8 27 eb ff ff       	callq  f70 <close@plt>
    2449:	b8 ff ff ff ff       	mov    $0xffffffff,%eax
    244e:	e9 46 04 00 00       	jmpq   2899 <submitr+0x72e>
    2453:	48 8d 85 b0 9f ff ff 	lea    -0x6050(%rbp),%rax
    245a:	be 00 20 00 00       	mov    $0x2000,%esi
    245f:	48 89 c7             	mov    %rax,%rdi
    2462:	e8 c9 eb ff ff       	callq  1030 <bzero@plt>
    2467:	48 8d 95 b0 9f ff ff 	lea    -0x6050(%rbp),%rdx
    246e:	48 8b 85 70 5f ff ff 	mov    -0xa090(%rbp),%rax
    2475:	48 89 d6             	mov    %rdx,%rsi
    2478:	48 89 c7             	mov    %rax,%rdi
    247b:	e8 81 fb ff ff       	callq  2001 <urlencode>
    2480:	85 c0                	test   %eax,%eax
    2482:	0f 89 91 00 00 00    	jns    2519 <submitr+0x3ae>
    2488:	48 8b 45 10          	mov    0x10(%rbp),%rax
    248c:	48 bb 45 72 72 6f 72 	movabs $0x52203a726f727245,%rbx
    2493:	3a 20 52 
    2496:	48 89 18             	mov    %rbx,(%rax)
    2499:	48 ba 65 73 75 6c 74 	movabs $0x747320746c757365,%rdx
    24a0:	20 73 74 
    24a3:	48 89 50 08          	mov    %rdx,0x8(%rax)
    24a7:	48 b9 72 69 6e 67 20 	movabs $0x6e6f6320676e6972,%rcx
    24ae:	63 6f 6e 
    24b1:	48 89 48 10          	mov    %rcx,0x10(%rax)
    24b5:	48 be 74 61 69 6e 73 	movabs $0x6e6120736e696174,%rsi
    24bc:	20 61 6e 
    24bf:	48 89 70 18          	mov    %rsi,0x18(%rax)
    24c3:	48 bb 20 69 6c 6c 65 	movabs $0x6c6167656c6c6920,%rbx
    24ca:	67 61 6c 
    24cd:	48 89 58 20          	mov    %rbx,0x20(%rax)
    24d1:	48 ba 20 6f 72 20 75 	movabs $0x72706e7520726f20,%rdx
    24d8:	6e 70 72 
    24db:	48 89 50 28          	mov    %rdx,0x28(%rax)
    24df:	48 b9 69 6e 74 61 62 	movabs $0x20656c6261746e69,%rcx
    24e6:	6c 65 20 
    24e9:	48 89 48 30          	mov    %rcx,0x30(%rax)
    24ed:	48 be 63 68 61 72 61 	movabs $0x6574636172616863,%rsi
    24f4:	63 74 65 
    24f7:	48 89 70 38          	mov    %rsi,0x38(%rax)
    24fb:	66 c7 40 40 72 2e    	movw   $0x2e72,0x40(%rax)
    2501:	c6 40 42 00          	movb   $0x0,0x42(%rax)
    2505:	8b 45 ec             	mov    -0x14(%rbp),%eax
    2508:	89 c7                	mov    %eax,%edi
    250a:	e8 61 ea ff ff       	callq  f70 <close@plt>
    250f:	b8 ff ff ff ff       	mov    $0xffffffff,%eax
    2514:	e9 80 03 00 00       	jmpq   2899 <submitr+0x72e>
    2519:	48 8d bd b0 9f ff ff 	lea    -0x6050(%rbp),%rdi
    2520:	48 8b b5 78 5f ff ff 	mov    -0xa088(%rbp),%rsi
    2527:	48 8b 8d 80 5f ff ff 	mov    -0xa080(%rbp),%rcx
    252e:	48 8b 95 88 5f ff ff 	mov    -0xa078(%rbp),%rdx
    2535:	48 8d 85 b0 bf ff ff 	lea    -0x4050(%rbp),%rax
    253c:	49 89 f9             	mov    %rdi,%r9
    253f:	49 89 f0             	mov    %rsi,%r8
    2542:	48 8d 35 97 0a 00 00 	lea    0xa97(%rip),%rsi        # 2fe0 <_IO_stdin_used+0x3d0>
    2549:	48 89 c7             	mov    %rax,%rdi
    254c:	b8 00 00 00 00       	mov    $0x0,%eax
    2551:	e8 fa ea ff ff       	callq  1050 <sprintf@plt>
    2556:	48 8d 85 b0 bf ff ff 	lea    -0x4050(%rbp),%rax
    255d:	48 89 c7             	mov    %rax,%rdi
    2560:	e8 cb e9 ff ff       	callq  f30 <strlen@plt>
    2565:	48 89 c2             	mov    %rax,%rdx
    2568:	48 8d 8d b0 bf ff ff 	lea    -0x4050(%rbp),%rcx
    256f:	8b 45 ec             	mov    -0x14(%rbp),%eax
    2572:	48 89 ce             	mov    %rcx,%rsi
    2575:	89 c7                	mov    %eax,%edi
    2577:	e8 04 fa ff ff       	callq  1f80 <rio_writen>
    257c:	48 85 c0             	test   %rax,%rax
    257f:	79 64                	jns    25e5 <submitr+0x47a>
    2581:	48 8b 45 10          	mov    0x10(%rbp),%rax
    2585:	48 bb 45 72 72 6f 72 	movabs $0x43203a726f727245,%rbx
    258c:	3a 20 43 
    258f:	48 89 18             	mov    %rbx,(%rax)
    2592:	48 ba 6c 69 65 6e 74 	movabs $0x6e7520746e65696c,%rdx
    2599:	20 75 6e 
    259c:	48 89 50 08          	mov    %rdx,0x8(%rax)
    25a0:	48 b9 61 62 6c 65 20 	movabs $0x206f7420656c6261,%rcx
    25a7:	74 6f 20 
    25aa:	48 89 48 10          	mov    %rcx,0x10(%rax)
    25ae:	48 be 77 72 69 74 65 	movabs $0x6f74206574697277,%rsi
    25b5:	20 74 6f 
    25b8:	48 89 70 18          	mov    %rsi,0x18(%rax)
    25bc:	48 bb 20 74 68 65 20 	movabs $0x7265732065687420,%rbx
    25c3:	73 65 72 
    25c6:	48 89 58 20          	mov    %rbx,0x20(%rax)
    25ca:	c7 40 28 76 65 72 00 	movl   $0x726576,0x28(%rax)
    25d1:	8b 45 ec             	mov    -0x14(%rbp),%eax
    25d4:	89 c7                	mov    %eax,%edi
    25d6:	e8 95 e9 ff ff       	callq  f70 <close@plt>
    25db:	b8 ff ff ff ff       	mov    $0xffffffff,%eax
    25e0:	e9 b4 02 00 00       	jmpq   2899 <submitr+0x72e>
    25e5:	8b 55 ec             	mov    -0x14(%rbp),%edx
    25e8:	48 8d 85 b0 df ff ff 	lea    -0x2050(%rbp),%rax
    25ef:	89 d6                	mov    %edx,%esi
    25f1:	48 89 c7             	mov    %rax,%rdi
    25f4:	e8 b9 f7 ff ff       	callq  1db2 <rio_readinitb>
    25f9:	48 8d 8d b0 bf ff ff 	lea    -0x4050(%rbp),%rcx
    2600:	48 8d 85 b0 df ff ff 	lea    -0x2050(%rbp),%rax
    2607:	ba 00 20 00 00       	mov    $0x2000,%edx
    260c:	48 89 ce             	mov    %rcx,%rsi
    260f:	48 89 c7             	mov    %rax,%rdi
    2612:	e8 cb f8 ff ff       	callq  1ee2 <rio_readlineb>
    2617:	48 85 c0             	test   %rax,%rax
    261a:	7f 78                	jg     2694 <submitr+0x529>
    261c:	48 8b 45 10          	mov    0x10(%rbp),%rax
    2620:	48 ba 45 72 72 6f 72 	movabs $0x43203a726f727245,%rdx
    2627:	3a 20 43 
    262a:	48 89 10             	mov    %rdx,(%rax)
    262d:	48 b9 6c 69 65 6e 74 	movabs $0x6e7520746e65696c,%rcx
    2634:	20 75 6e 
    2637:	48 89 48 08          	mov    %rcx,0x8(%rax)
    263b:	48 be 61 62 6c 65 20 	movabs $0x206f7420656c6261,%rsi
    2642:	74 6f 20 
    2645:	48 89 70 10          	mov    %rsi,0x10(%rax)
    2649:	48 bb 72 65 61 64 20 	movabs $0x7269662064616572,%rbx
    2650:	66 69 72 
    2653:	48 89 58 18          	mov    %rbx,0x18(%rax)
    2657:	48 bf 73 74 20 68 65 	movabs $0x6564616568207473,%rdi
    265e:	61 64 65 
    2661:	48 89 78 20          	mov    %rdi,0x20(%rax)
    2665:	48 ba 72 20 66 72 6f 	movabs $0x73206d6f72662072,%rdx
    266c:	6d 20 73 
    266f:	48 89 50 28          	mov    %rdx,0x28(%rax)
    2673:	c7 40 30 65 72 76 65 	movl   $0x65767265,0x30(%rax)
    267a:	66 c7 40 34 72 00    	movw   $0x72,0x34(%rax)
    2680:	8b 45 ec             	mov    -0x14(%rbp),%eax
    2683:	89 c7                	mov    %eax,%edi
    2685:	e8 e6 e8 ff ff       	callq  f70 <close@plt>
    268a:	b8 ff ff ff ff       	mov    $0xffffffff,%eax
    268f:	e9 05 02 00 00       	jmpq   2899 <submitr+0x72e>
    2694:	48 8d b5 a0 5f ff ff 	lea    -0xa060(%rbp),%rsi
    269b:	48 8d 8d ac 7f ff ff 	lea    -0x8054(%rbp),%rcx
    26a2:	48 8d 95 b0 7f ff ff 	lea    -0x8050(%rbp),%rdx
    26a9:	48 8d 85 b0 bf ff ff 	lea    -0x4050(%rbp),%rax
    26b0:	49 89 f0             	mov    %rsi,%r8
    26b3:	48 8d 35 70 09 00 00 	lea    0x970(%rip),%rsi        # 302a <_IO_stdin_used+0x41a>
    26ba:	48 89 c7             	mov    %rax,%rdi
    26bd:	b8 00 00 00 00       	mov    $0x0,%eax
    26c2:	e8 39 e9 ff ff       	callq  1000 <__isoc99_sscanf@plt>
    26c7:	8b 85 ac 7f ff ff    	mov    -0x8054(%rbp),%eax
    26cd:	3d c8 00 00 00       	cmp    $0xc8,%eax
    26d2:	0f 84 cd 00 00 00    	je     27a5 <submitr+0x63a>
    26d8:	8b 85 ac 7f ff ff    	mov    -0x8054(%rbp),%eax
    26de:	48 8d 95 a0 5f ff ff 	lea    -0xa060(%rbp),%rdx
    26e5:	48 89 d1             	mov    %rdx,%rcx
    26e8:	89 c2                	mov    %eax,%edx
    26ea:	48 8d 35 4f 09 00 00 	lea    0x94f(%rip),%rsi        # 3040 <_IO_stdin_used+0x430>
    26f1:	48 8b 7d 10          	mov    0x10(%rbp),%rdi
    26f5:	b8 00 00 00 00       	mov    $0x0,%eax
    26fa:	e8 51 e9 ff ff       	callq  1050 <sprintf@plt>
    26ff:	8b 45 ec             	mov    -0x14(%rbp),%eax
    2702:	89 c7                	mov    %eax,%edi
    2704:	e8 67 e8 ff ff       	callq  f70 <close@plt>
    2709:	b8 ff ff ff ff       	mov    $0xffffffff,%eax
    270e:	e9 86 01 00 00       	jmpq   2899 <submitr+0x72e>
    2713:	48 8d 8d b0 bf ff ff 	lea    -0x4050(%rbp),%rcx
    271a:	48 8d 85 b0 df ff ff 	lea    -0x2050(%rbp),%rax
    2721:	ba 00 20 00 00       	mov    $0x2000,%edx
    2726:	48 89 ce             	mov    %rcx,%rsi
    2729:	48 89 c7             	mov    %rax,%rdi
    272c:	e8 b1 f7 ff ff       	callq  1ee2 <rio_readlineb>
    2731:	48 85 c0             	test   %rax,%rax
    2734:	7f 6f                	jg     27a5 <submitr+0x63a>
    2736:	48 8b 45 10          	mov    0x10(%rbp),%rax
    273a:	48 b9 45 72 72 6f 72 	movabs $0x43203a726f727245,%rcx
    2741:	3a 20 43 
    2744:	48 89 08             	mov    %rcx,(%rax)
    2747:	48 be 6c 69 65 6e 74 	movabs $0x6e7520746e65696c,%rsi
    274e:	20 75 6e 
    2751:	48 89 70 08          	mov    %rsi,0x8(%rax)
    2755:	48 bb 61 62 6c 65 20 	movabs $0x206f7420656c6261,%rbx
    275c:	74 6f 20 
    275f:	48 89 58 10          	mov    %rbx,0x10(%rax)
    2763:	48 bf 72 65 61 64 20 	movabs $0x6165682064616572,%rdi
    276a:	68 65 61 
    276d:	48 89 78 18          	mov    %rdi,0x18(%rax)
    2771:	48 ba 64 65 72 73 20 	movabs $0x6f72662073726564,%rdx
    2778:	66 72 6f 
    277b:	48 89 50 20          	mov    %rdx,0x20(%rax)
    277f:	48 b9 6d 20 73 65 72 	movabs $0x726576726573206d,%rcx
    2786:	76 65 72 
    2789:	48 89 48 28          	mov    %rcx,0x28(%rax)
    278d:	c6 40 30 00          	movb   $0x0,0x30(%rax)
    2791:	8b 45 ec             	mov    -0x14(%rbp),%eax
    2794:	89 c7                	mov    %eax,%edi
    2796:	e8 d5 e7 ff ff       	callq  f70 <close@plt>
    279b:	b8 ff ff ff ff       	mov    $0xffffffff,%eax
    27a0:	e9 f4 00 00 00       	jmpq   2899 <submitr+0x72e>
    27a5:	48 8d 85 b0 bf ff ff 	lea    -0x4050(%rbp),%rax
    27ac:	48 8d 35 ba 08 00 00 	lea    0x8ba(%rip),%rsi        # 306d <_IO_stdin_used+0x45d>
    27b3:	48 89 c7             	mov    %rax,%rdi
    27b6:	e8 e5 e7 ff ff       	callq  fa0 <strcmp@plt>
    27bb:	85 c0                	test   %eax,%eax
    27bd:	0f 85 50 ff ff ff    	jne    2713 <submitr+0x5a8>
    27c3:	48 8d 8d b0 bf ff ff 	lea    -0x4050(%rbp),%rcx
    27ca:	48 8d 85 b0 df ff ff 	lea    -0x2050(%rbp),%rax
    27d1:	ba 00 20 00 00       	mov    $0x2000,%edx
    27d6:	48 89 ce             	mov    %rcx,%rsi
    27d9:	48 89 c7             	mov    %rax,%rdi
    27dc:	e8 01 f7 ff ff       	callq  1ee2 <rio_readlineb>
    27e1:	48 85 c0             	test   %rax,%rax
    27e4:	7f 76                	jg     285c <submitr+0x6f1>
    27e6:	48 8b 45 10          	mov    0x10(%rbp),%rax
    27ea:	48 be 45 72 72 6f 72 	movabs $0x43203a726f727245,%rsi
    27f1:	3a 20 43 
    27f4:	48 89 30             	mov    %rsi,(%rax)
    27f7:	48 bb 6c 69 65 6e 74 	movabs $0x6e7520746e65696c,%rbx
    27fe:	20 75 6e 
    2801:	48 89 58 08          	mov    %rbx,0x8(%rax)
    2805:	48 bf 61 62 6c 65 20 	movabs $0x206f7420656c6261,%rdi
    280c:	74 6f 20 
    280f:	48 89 78 10          	mov    %rdi,0x10(%rax)
    2813:	48 ba 72 65 61 64 20 	movabs $0x6174732064616572,%rdx
    281a:	73 74 61 
    281d:	48 89 50 18          	mov    %rdx,0x18(%rax)
    2821:	48 b9 74 75 73 20 6d 	movabs $0x7373656d20737574,%rcx
    2828:	65 73 73 
    282b:	48 89 48 20          	mov    %rcx,0x20(%rax)
    282f:	48 be 61 67 65 20 66 	movabs $0x6d6f726620656761,%rsi
    2836:	72 6f 6d 
    2839:	48 89 70 28          	mov    %rsi,0x28(%rax)
    283d:	48 bb 20 73 65 72 76 	movabs $0x72657672657320,%rbx
    2844:	65 72 00 
    2847:	48 89 58 30          	mov    %rbx,0x30(%rax)
    284b:	8b 45 ec             	mov    -0x14(%rbp),%eax
    284e:	89 c7                	mov    %eax,%edi
    2850:	e8 1b e7 ff ff       	callq  f70 <close@plt>
    2855:	b8 ff ff ff ff       	mov    $0xffffffff,%eax
    285a:	eb 3d                	jmp    2899 <submitr+0x72e>
    285c:	48 8d 85 b0 bf ff ff 	lea    -0x4050(%rbp),%rax
    2863:	48 89 c6             	mov    %rax,%rsi
    2866:	48 8b 7d 10          	mov    0x10(%rbp),%rdi
    286a:	e8 91 e6 ff ff       	callq  f00 <strcpy@plt>
    286f:	8b 45 ec             	mov    -0x14(%rbp),%eax
    2872:	89 c7                	mov    %eax,%edi
    2874:	e8 f7 e6 ff ff       	callq  f70 <close@plt>
    2879:	48 8d 35 f0 07 00 00 	lea    0x7f0(%rip),%rsi        # 3070 <_IO_stdin_used+0x460>
    2880:	48 8b 7d 10          	mov    0x10(%rbp),%rdi
    2884:	e8 17 e7 ff ff       	callq  fa0 <strcmp@plt>
    2889:	85 c0                	test   %eax,%eax
    288b:	75 07                	jne    2894 <submitr+0x729>
    288d:	b8 00 00 00 00       	mov    $0x0,%eax
    2892:	eb 05                	jmp    2899 <submitr+0x72e>
    2894:	b8 ff ff ff ff       	mov    $0xffffffff,%eax
    2899:	48 81 c4 88 a0 00 00 	add    $0xa088,%rsp
    28a0:	5b                   	pop    %rbx
    28a1:	5d                   	pop    %rbp
    28a2:	c3                   	retq   

00000000000028a3 <init_timeout>:
    28a3:	55                   	push   %rbp
    28a4:	48 89 e5             	mov    %rsp,%rbp
    28a7:	48 83 ec 10          	sub    $0x10,%rsp
    28ab:	89 7d fc             	mov    %edi,-0x4(%rbp)
    28ae:	83 7d fc 00          	cmpl   $0x0,-0x4(%rbp)
    28b2:	74 2a                	je     28de <init_timeout+0x3b>
    28b4:	83 7d fc 00          	cmpl   $0x0,-0x4(%rbp)
    28b8:	79 07                	jns    28c1 <init_timeout+0x1e>
    28ba:	c7 45 fc 00 00 00 00 	movl   $0x0,-0x4(%rbp)
    28c1:	48 8d 35 b5 f4 ff ff 	lea    -0xb4b(%rip),%rsi        # 1d7d <sigalrm_handler>
    28c8:	bf 0e 00 00 00       	mov    $0xe,%edi
    28cd:	e8 de e6 ff ff       	callq  fb0 <signal@plt>
    28d2:	8b 45 fc             	mov    -0x4(%rbp),%eax
    28d5:	89 c7                	mov    %eax,%edi
    28d7:	e8 84 e6 ff ff       	callq  f60 <alarm@plt>
    28dc:	eb 01                	jmp    28df <init_timeout+0x3c>
    28de:	90                   	nop
    28df:	c9                   	leaveq 
    28e0:	c3                   	retq   

00000000000028e1 <init_driver>:
    28e1:	55                   	push   %rbp
    28e2:	48 89 e5             	mov    %rsp,%rbp
    28e5:	48 83 ec 40          	sub    $0x40,%rsp
    28e9:	48 89 7d c8          	mov    %rdi,-0x38(%rbp)
    28ed:	48 8d 05 7f 07 00 00 	lea    0x77f(%rip),%rax        # 3073 <_IO_stdin_used+0x463>
    28f4:	48 89 45 f8          	mov    %rax,-0x8(%rbp)
    28f8:	c7 45 f4 6e 3b 00 00 	movl   $0x3b6e,-0xc(%rbp)
    28ff:	be 01 00 00 00       	mov    $0x1,%esi
    2904:	bf 0d 00 00 00       	mov    $0xd,%edi
    2909:	e8 a2 e6 ff ff       	callq  fb0 <signal@plt>
    290e:	be 01 00 00 00       	mov    $0x1,%esi
    2913:	bf 1d 00 00 00       	mov    $0x1d,%edi
    2918:	e8 93 e6 ff ff       	callq  fb0 <signal@plt>
    291d:	be 01 00 00 00       	mov    $0x1,%esi
    2922:	bf 1d 00 00 00       	mov    $0x1d,%edi
    2927:	e8 84 e6 ff ff       	callq  fb0 <signal@plt>
    292c:	ba 00 00 00 00       	mov    $0x0,%edx
    2931:	be 01 00 00 00       	mov    $0x1,%esi
    2936:	bf 02 00 00 00       	mov    $0x2,%edi
    293b:	e8 60 e7 ff ff       	callq  10a0 <socket@plt>
    2940:	89 45 f0             	mov    %eax,-0x10(%rbp)
    2943:	83 7d f0 00          	cmpl   $0x0,-0x10(%rbp)
    2947:	79 52                	jns    299b <init_driver+0xba>
    2949:	48 8b 45 c8          	mov    -0x38(%rbp),%rax
    294d:	48 b9 45 72 72 6f 72 	movabs $0x43203a726f727245,%rcx
    2954:	3a 20 43 
    2957:	48 89 08             	mov    %rcx,(%rax)
    295a:	48 ba 6c 69 65 6e 74 	movabs $0x6e7520746e65696c,%rdx
    2961:	20 75 6e 
    2964:	48 89 50 08          	mov    %rdx,0x8(%rax)
    2968:	48 b9 61 62 6c 65 20 	movabs $0x206f7420656c6261,%rcx
    296f:	74 6f 20 
    2972:	48 89 48 10          	mov    %rcx,0x10(%rax)
    2976:	48 be 63 72 65 61 74 	movabs $0x7320657461657263,%rsi
    297d:	65 20 73 
    2980:	48 89 70 18          	mov    %rsi,0x18(%rax)
    2984:	c7 40 20 6f 63 6b 65 	movl   $0x656b636f,0x20(%rax)
    298b:	66 c7 40 24 74 00    	movw   $0x74,0x24(%rax)
    2991:	b8 ff ff ff ff       	mov    $0xffffffff,%eax
    2996:	e9 38 01 00 00       	jmpq   2ad3 <init_driver+0x1f2>
    299b:	48 8b 45 f8          	mov    -0x8(%rbp),%rax
    299f:	48 89 c7             	mov    %rax,%rdi
    29a2:	e8 19 e6 ff ff       	callq  fc0 <gethostbyname@plt>
    29a7:	48 89 45 e8          	mov    %rax,-0x18(%rbp)
    29ab:	48 83 7d e8 00       	cmpq   $0x0,-0x18(%rbp)
    29b0:	75 6e                	jne    2a20 <init_driver+0x13f>
    29b2:	48 8b 45 c8          	mov    -0x38(%rbp),%rax
    29b6:	48 ba 45 72 72 6f 72 	movabs $0x44203a726f727245,%rdx
    29bd:	3a 20 44 
    29c0:	48 89 10             	mov    %rdx,(%rax)
    29c3:	48 b9 4e 53 20 69 73 	movabs $0x6e7520736920534e,%rcx
    29ca:	20 75 6e 
    29cd:	48 89 48 08          	mov    %rcx,0x8(%rax)
    29d1:	48 be 61 62 6c 65 20 	movabs $0x206f7420656c6261,%rsi
    29d8:	74 6f 20 
    29db:	48 89 70 10          	mov    %rsi,0x10(%rax)
    29df:	48 ba 72 65 73 6f 6c 	movabs $0x2065766c6f736572,%rdx
    29e6:	76 65 20 
    29e9:	48 89 50 18          	mov    %rdx,0x18(%rax)
    29ed:	48 b9 73 65 72 76 65 	movabs $0x6120726576726573,%rcx
    29f4:	72 20 61 
    29f7:	48 89 48 20          	mov    %rcx,0x20(%rax)
    29fb:	c7 40 28 64 64 72 65 	movl   $0x65726464,0x28(%rax)
    2a02:	66 c7 40 2c 73 73    	movw   $0x7373,0x2c(%rax)
    2a08:	c6 40 2e 00          	movb   $0x0,0x2e(%rax)
    2a0c:	8b 45 f0             	mov    -0x10(%rbp),%eax
    2a0f:	89 c7                	mov    %eax,%edi
    2a11:	e8 5a e5 ff ff       	callq  f70 <close@plt>
    2a16:	b8 ff ff ff ff       	mov    $0xffffffff,%eax
    2a1b:	e9 b3 00 00 00       	jmpq   2ad3 <init_driver+0x1f2>
    2a20:	48 8d 45 d0          	lea    -0x30(%rbp),%rax
    2a24:	be 10 00 00 00       	mov    $0x10,%esi
    2a29:	48 89 c7             	mov    %rax,%rdi
    2a2c:	e8 ff e5 ff ff       	callq  1030 <bzero@plt>
    2a31:	66 c7 45 d0 02 00    	movw   $0x2,-0x30(%rbp)
    2a37:	48 8b 45 e8          	mov    -0x18(%rbp),%rax
    2a3b:	8b 40 14             	mov    0x14(%rax),%eax
    2a3e:	48 63 d0             	movslq %eax,%rdx
    2a41:	48 8b 45 e8          	mov    -0x18(%rbp),%rax
    2a45:	48 8b 40 18          	mov    0x18(%rax),%rax
    2a49:	48 8b 00             	mov    (%rax),%rax
    2a4c:	48 8d 4d d0          	lea    -0x30(%rbp),%rcx
    2a50:	48 83 c1 04          	add    $0x4,%rcx
    2a54:	48 89 ce             	mov    %rcx,%rsi
    2a57:	48 89 c7             	mov    %rax,%rdi
    2a5a:	e8 b1 e5 ff ff       	callq  1010 <bcopy@plt>
    2a5f:	8b 45 f4             	mov    -0xc(%rbp),%eax
    2a62:	0f b7 c0             	movzwl %ax,%eax
    2a65:	89 c7                	mov    %eax,%edi
    2a67:	e8 d4 e4 ff ff       	callq  f40 <htons@plt>
    2a6c:	66 89 45 d2          	mov    %ax,-0x2e(%rbp)
    2a70:	48 8d 4d d0          	lea    -0x30(%rbp),%rcx
    2a74:	8b 45 f0             	mov    -0x10(%rbp),%eax
    2a77:	ba 10 00 00 00       	mov    $0x10,%edx
    2a7c:	48 89 ce             	mov    %rcx,%rsi
    2a7f:	89 c7                	mov    %eax,%edi
    2a81:	e8 ea e5 ff ff       	callq  1070 <connect@plt>
    2a86:	85 c0                	test   %eax,%eax
    2a88:	79 2d                	jns    2ab7 <init_driver+0x1d6>
    2a8a:	48 8b 55 f8          	mov    -0x8(%rbp),%rdx
    2a8e:	48 8b 45 c8          	mov    -0x38(%rbp),%rax
    2a92:	48 8d 35 f7 05 00 00 	lea    0x5f7(%rip),%rsi        # 3090 <_IO_stdin_used+0x480>
    2a99:	48 89 c7             	mov    %rax,%rdi
    2a9c:	b8 00 00 00 00       	mov    $0x0,%eax
    2aa1:	e8 aa e5 ff ff       	callq  1050 <sprintf@plt>
    2aa6:	8b 45 f0             	mov    -0x10(%rbp),%eax
    2aa9:	89 c7                	mov    %eax,%edi
    2aab:	e8 c0 e4 ff ff       	callq  f70 <close@plt>
    2ab0:	b8 ff ff ff ff       	mov    $0xffffffff,%eax
    2ab5:	eb 1c                	jmp    2ad3 <init_driver+0x1f2>
    2ab7:	8b 45 f0             	mov    -0x10(%rbp),%eax
    2aba:	89 c7                	mov    %eax,%edi
    2abc:	e8 af e4 ff ff       	callq  f70 <close@plt>
    2ac1:	48 8b 45 c8          	mov    -0x38(%rbp),%rax
    2ac5:	66 c7 00 4f 4b       	movw   $0x4b4f,(%rax)
    2aca:	c6 40 02 00          	movb   $0x0,0x2(%rax)
    2ace:	b8 00 00 00 00       	mov    $0x0,%eax
    2ad3:	c9                   	leaveq 
    2ad4:	c3                   	retq   

0000000000002ad5 <driver_post>:
    2ad5:	55                   	push   %rbp
    2ad6:	48 89 e5             	mov    %rsp,%rbp
    2ad9:	48 83 ec 30          	sub    $0x30,%rsp
    2add:	48 89 7d e8          	mov    %rdi,-0x18(%rbp)
    2ae1:	48 89 75 e0          	mov    %rsi,-0x20(%rbp)
    2ae5:	89 55 dc             	mov    %edx,-0x24(%rbp)
    2ae8:	48 89 4d d0          	mov    %rcx,-0x30(%rbp)
    2aec:	83 7d dc 00          	cmpl   $0x0,-0x24(%rbp)
    2af0:	74 2c                	je     2b1e <driver_post+0x49>
    2af2:	48 8b 45 e0          	mov    -0x20(%rbp),%rax
    2af6:	48 89 c6             	mov    %rax,%rsi
    2af9:	48 8d 3d b6 05 00 00 	lea    0x5b6(%rip),%rdi        # 30b6 <_IO_stdin_used+0x4a6>
    2b00:	b8 00 00 00 00       	mov    $0x0,%eax
    2b05:	e8 46 e4 ff ff       	callq  f50 <printf@plt>
    2b0a:	48 8b 45 d0          	mov    -0x30(%rbp),%rax
    2b0e:	66 c7 00 4f 4b       	movw   $0x4b4f,(%rax)
    2b13:	c6 40 02 00          	movb   $0x0,0x2(%rax)
    2b17:	b8 00 00 00 00       	mov    $0x0,%eax
    2b1c:	eb 64                	jmp    2b82 <driver_post+0xad>
    2b1e:	48 83 7d e8 00       	cmpq   $0x0,-0x18(%rbp)
    2b23:	74 4b                	je     2b70 <driver_post+0x9b>
    2b25:	48 8b 45 e8          	mov    -0x18(%rbp),%rax
    2b29:	0f b6 00             	movzbl (%rax),%eax
    2b2c:	84 c0                	test   %al,%al
    2b2e:	74 40                	je     2b70 <driver_post+0x9b>
    2b30:	48 8b 55 e0          	mov    -0x20(%rbp),%rdx
    2b34:	48 8b 45 e8          	mov    -0x18(%rbp),%rax
    2b38:	48 83 ec 08          	sub    $0x8,%rsp
    2b3c:	ff 75 d0             	pushq  -0x30(%rbp)
    2b3f:	49 89 d1             	mov    %rdx,%r9
    2b42:	4c 8d 05 84 05 00 00 	lea    0x584(%rip),%r8        # 30cd <_IO_stdin_used+0x4bd>
    2b49:	48 89 c1             	mov    %rax,%rcx
    2b4c:	48 8d 15 82 05 00 00 	lea    0x582(%rip),%rdx        # 30d5 <_IO_stdin_used+0x4c5>
    2b53:	be 6e 3b 00 00       	mov    $0x3b6e,%esi
    2b58:	48 8d 3d 14 05 00 00 	lea    0x514(%rip),%rdi        # 3073 <_IO_stdin_used+0x463>
    2b5f:	e8 07 f6 ff ff       	callq  216b <submitr>
    2b64:	48 83 c4 10          	add    $0x10,%rsp
    2b68:	89 45 fc             	mov    %eax,-0x4(%rbp)
    2b6b:	8b 45 fc             	mov    -0x4(%rbp),%eax
    2b6e:	eb 12                	jmp    2b82 <driver_post+0xad>
    2b70:	48 8b 45 d0          	mov    -0x30(%rbp),%rax
    2b74:	66 c7 00 4f 4b       	movw   $0x4b4f,(%rax)
    2b79:	c6 40 02 00          	movb   $0x0,0x2(%rax)
    2b7d:	b8 00 00 00 00       	mov    $0x0,%eax
    2b82:	c9                   	leaveq 
    2b83:	c3                   	retq   
    2b84:	66 2e 0f 1f 84 00 00 	nopw   %cs:0x0(%rax,%rax,1)
    2b8b:	00 00 00 
    2b8e:	66 90                	xchg   %ax,%ax

0000000000002b90 <__libc_csu_init>:
    2b90:	41 57                	push   %r15
    2b92:	41 56                	push   %r14
    2b94:	41 89 ff             	mov    %edi,%r15d
    2b97:	41 55                	push   %r13
    2b99:	41 54                	push   %r12
    2b9b:	4c 8d 25 36 12 20 00 	lea    0x201236(%rip),%r12        # 203dd8 <__frame_dummy_init_array_entry>
    2ba2:	55                   	push   %rbp
    2ba3:	48 8d 2d 36 12 20 00 	lea    0x201236(%rip),%rbp        # 203de0 <__init_array_end>
    2baa:	53                   	push   %rbx
    2bab:	49 89 f6             	mov    %rsi,%r14
    2bae:	49 89 d5             	mov    %rdx,%r13
    2bb1:	4c 29 e5             	sub    %r12,%rbp
    2bb4:	48 83 ec 08          	sub    $0x8,%rsp
    2bb8:	48 c1 fd 03          	sar    $0x3,%rbp
    2bbc:	e8 ef e2 ff ff       	callq  eb0 <_init>
    2bc1:	48 85 ed             	test   %rbp,%rbp
    2bc4:	74 20                	je     2be6 <__libc_csu_init+0x56>
    2bc6:	31 db                	xor    %ebx,%ebx
    2bc8:	0f 1f 84 00 00 00 00 	nopl   0x0(%rax,%rax,1)
    2bcf:	00 
    2bd0:	4c 89 ea             	mov    %r13,%rdx
    2bd3:	4c 89 f6             	mov    %r14,%rsi
    2bd6:	44 89 ff             	mov    %r15d,%edi
    2bd9:	41 ff 14 dc          	callq  *(%r12,%rbx,8)
    2bdd:	48 83 c3 01          	add    $0x1,%rbx
    2be1:	48 39 dd             	cmp    %rbx,%rbp
    2be4:	75 ea                	jne    2bd0 <__libc_csu_init+0x40>
    2be6:	48 83 c4 08          	add    $0x8,%rsp
    2bea:	5b                   	pop    %rbx
    2beb:	5d                   	pop    %rbp
    2bec:	41 5c                	pop    %r12
    2bee:	41 5d                	pop    %r13
    2bf0:	41 5e                	pop    %r14
    2bf2:	41 5f                	pop    %r15
    2bf4:	c3                   	retq   
    2bf5:	90                   	nop
    2bf6:	66 2e 0f 1f 84 00 00 	nopw   %cs:0x0(%rax,%rax,1)
    2bfd:	00 00 00 

0000000000002c00 <__libc_csu_fini>:
    2c00:	f3 c3                	repz retq 

Disassembly of section .fini:

0000000000002c04 <_fini>:
    2c04:	48 83 ec 08          	sub    $0x8,%rsp
    2c08:	48 83 c4 08          	add    $0x8,%rsp
    2c0c:	c3                   	retq   

